
kernel/kernel:     file format elf64-littleriscv


Disassembly of section .text:

0000000080000000 <_entry>:

# 内核入口点 - QEMU从这里开始执行
_entry:
    # ========== 调试检查点: 启动标记 ==========
    # 任务5要求：先在汇编中直接写UART验证硬件工作
    li t0, 0x10000000           # UART基地址 (THR - Transmit Holding Register)
    80000000:	100002b7          	lui	t0,0x10000
    li t1, 'S'                  # 启动标记字符
    80000004:	05300313          	li	t1,83
    sb t1, 0(t0)                # 发送到串口
    80000008:	00628023          	sb	t1,0(t0) # 10000000 <_entry-0x70000000>

    # ========== 1. 设置栈指针 ==========
    # 使用链接脚本定义的栈顶地址
    la sp, _stack_top           # 加载栈顶地址到sp寄存器
    8000000c:	0000f117          	auipc	sp,0xf
    80000010:	ff410113          	add	sp,sp,-12 # 8000f000 <_stack_top>
    
    # 调试检查点: 栈设置完成
    li t1, 'P'                  # 栈设置完成标记
    80000014:	05000313          	li	t1,80
    sb t1, 0(t0)                # 发送到串口
    80000018:	00628023          	sb	t1,0(t0)

    # ========== 2. 清零BSS段 ==========
    # 使用链接脚本提供的精确符号
    la t0, sbss                 # BSS段开始地址
    8000001c:	00007297          	auipc	t0,0x7
    80000020:	e3428293          	add	t0,t0,-460 # 80006e50 <test_bss_var>
    la t1, ebss                 # BSS段结束地址
    80000024:	0000d317          	auipc	t1,0xd
    80000028:	01c30313          	add	t1,t1,28 # 8000d040 <_bss_end>
    
    # 调试检查点: 开始清零BSS
    li t2, 0x10000000           # 重新加载UART地址
    8000002c:	100003b7          	lui	t2,0x10000
    li t3, 'B'                  # BSS清零开始标记
    80000030:	04200e13          	li	t3,66
    sb t3, 0(t2)                # 发送到串口
    80000034:	01c38023          	sb	t3,0(t2) # 10000000 <_entry-0x70000000>

0000000080000038 <clear_bss_loop>:

clear_bss_loop:
    beq t0, t1, bss_done        # 如果已到BSS段末尾 跳出循环
    80000038:	00628663          	beq	t0,t1,80000044 <bss_done>
    sd zero, 0(t0)              # 将当前8字节清零
    8000003c:	0002b023          	sd	zero,0(t0)
    addi t0, t0, 8              # 移动到下一个8字节位置
    80000040:	02a1                	add	t0,t0,8
    j clear_bss_loop            # 继续循环
    80000042:	bfdd                	j	80000038 <clear_bss_loop>

0000000080000044 <bss_done>:

bss_done:
    # 调试检查点: BSS清零完成
    li t2, 0x10000000           # UART地址
    80000044:	100003b7          	lui	t2,0x10000
    li t3, 'b'                  # BSS清零完成标记
    80000048:	06200e13          	li	t3,98
    sb t3, 0(t2)                # 发送到串口
    8000004c:	01c38023          	sb	t3,0(t2) # 10000000 <_entry-0x70000000>

    # ========== 3. 跳转到C启动函数 ==========
    # 三阶段启动：entry.S → start.c → kmain.c
    li t2, 0x10000000           # UART地址  
    80000050:	100003b7          	lui	t2,0x10000
    li t3, 'C'                  # 跳转到C代码标记
    80000054:	04300e13          	li	t3,67
    sb t3, 0(t2)                # 发送到串口
    80000058:	01c38023          	sb	t3,0(t2) # 10000000 <_entry-0x70000000>
    
    call start                  # 调用start函数(Machine模式)
    8000005c:	00000097          	auipc	ra,0x0
    80000060:	01a080e7          	jalr	26(ra) # 80000076 <start>

0000000080000064 <hang>:
    # ========== 4. 防止程序意外退出 ==========
    # 如果start()函数意外返回，在这里安全停止
    # 注意：正常情况下start()会通过mret跳转，不会返回
hang:
    # 调试检查点: 意外返回 - 这不应该发生
    li t0, 0x10000000           # UART地址
    80000064:	100002b7          	lui	t0,0x10000
    li t1, 'E'                  # 错误标记 - kmain()不应该返回
    80000068:	04500313          	li	t1,69
    sb t1, 0(t0)                # 发送到串口
    8000006c:	00628023          	sb	t1,0(t0) # 10000000 <_entry-0x70000000>
    
    # 禁用中断，进入安全的无限循环
    csrci mstatus, 0x8          # 清除MIE位，禁用中断
    80000070:	30047073          	csrc	mstatus,8
    
    # 无限循环，防止CPU继续执行随机内存
    j hang
    80000074:	bfc5                	j	80000064 <hang>

0000000080000076 <start>:
 * 1. 配置特权级切换到Supervisor模式
 * 2. 设置中断委托和权限管理
 * 3. 初始化基础硬件
 * 4. 通过mret跳转到Supervisor模式的kmain函数
 */
void start(void) {
    80000076:	7139                	add	sp,sp,-64
    80000078:	fc06                	sd	ra,56(sp)
    8000007a:	f822                	sd	s0,48(sp)
    8000007c:	0080                	add	s0,sp,64
    // 调试标记：进入start函数
    *(volatile char*)0x10000000 = 's';
    8000007e:	100007b7          	lui	a5,0x10000
    80000082:	07300713          	li	a4,115
    80000086:	00e78023          	sb	a4,0(a5) # 10000000 <_entry-0x70000000>
    
    // ========== 1. 配置特权级切换 ==========
    // 设置mstatus寄存器，准备从Machine模式切换到Supervisor模式
    unsigned long x = read_csr(mstatus);
    8000008a:	300027f3          	csrr	a5,mstatus
    8000008e:	fef43423          	sd	a5,-24(s0)
    80000092:	fe843783          	ld	a5,-24(s0)
    80000096:	fef43023          	sd	a5,-32(s0)
    x &= ~MSTATUS_MPP_MASK;          // 清除之前的特权级设置
    8000009a:	fe043703          	ld	a4,-32(s0)
    8000009e:	77f9                	lui	a5,0xffffe
    800000a0:	7ff78793          	add	a5,a5,2047 # ffffffffffffe7ff <_stack_top+0xffffffff7ffef7ff>
    800000a4:	8ff9                	and	a5,a5,a4
    800000a6:	fef43023          	sd	a5,-32(s0)
    x |= MSTATUS_MPP_S;              // 设置Previous Privilege为Supervisor模式，欺骗cpu，使得mret从M模式进入S模式
    800000aa:	fe043703          	ld	a4,-32(s0)
    800000ae:	6785                	lui	a5,0x1
    800000b0:	80078793          	add	a5,a5,-2048 # 800 <_entry-0x7ffff800>
    800000b4:	8fd9                	or	a5,a5,a4
    800000b6:	fef43023          	sd	a5,-32(s0)
    write_csr(mstatus, x);
    800000ba:	fe043783          	ld	a5,-32(s0)
    800000be:	30079073          	csrw	mstatus,a5
    
    // 设置mret的返回地址为kmain函数
    // mret指令会跳转到mepc寄存器指定的地址
    write_csr(mepc, (uint64_t)kmain);
    800000c2:	00000797          	auipc	a5,0x0
    800000c6:	21078793          	add	a5,a5,528 # 800002d2 <kmain>
    800000ca:	34179073          	csrw	mepc,a5
    // ========== 2. 配置内存管理 ==========
    // 禁用分页机制 - 启动阶段使用物理地址
    // satp = 0 表示禁用地址翻译，使用恒等映射
    // satp 寄存器的结构如下：[63:60] MODE | [59:44] ASID | [43:0] PPN
    // MODE 字段控制地址转换模式，0 = Bare (禁用分页)，1 = Sv32, 8 = Sv39, 9 = Sv48 (SvN 表示启用N位虚拟地址转换)
    write_csr(satp, 0);
    800000ce:	18005073          	csrw	satp,0
    
    // ========== 3. 配置中断和异常委托 ==========
    // 将所有异常委托给Supervisor模式处理
    // 这样Supervisor模式可以处理页面错误、非法指令等异常
    write_csr(medeleg, 0xffff);
    800000d2:	67c1                	lui	a5,0x10
    800000d4:	37fd                	addw	a5,a5,-1 # ffff <_entry-0x7fff0001>
    800000d6:	30279073          	csrw	medeleg,a5
    
    // 将软件/外部/监督定时器中断委托给Supervisor模式
    // 机器定时器中断保留在M模式，用于桥接到S模式
    unsigned long ideleg = (1 << 1) | (1 << 5) | (1 << 9);
    800000da:	22200793          	li	a5,546
    800000de:	fcf43c23          	sd	a5,-40(s0)
    write_csr(mideleg, ideleg);
    800000e2:	fd843783          	ld	a5,-40(s0)
    800000e6:	30379073          	csrw	mideleg,a5
    
    // 在Supervisor模式中使能中断
    // 注意：这个设置会在特权级切换后生效
    write_csr(sie, read_csr(sie) | SIE_SEIE | SIE_STIE | SIE_SSIE);
    800000ea:	104027f3          	csrr	a5,sie
    800000ee:	fcf43823          	sd	a5,-48(s0)
    800000f2:	fd043783          	ld	a5,-48(s0)
    800000f6:	2227e793          	or	a5,a5,546
    800000fa:	10479073          	csrw	sie,a5
    // 如果都不匹配，Machine模式无限制访问，S/M模式禁止访问
    // PMP允许Machine模式限制低特权级模式的内存访问
    // 这里配置允许Supervisor模式访问所有物理内存
    
    // 设置PMP地址寄存器0 - 覆盖整个地址空间
    write_csr(pmpaddr0, 0x3fffffffffffffull);
    800000fe:	57fd                	li	a5,-1
    80000100:	83a9                	srl	a5,a5,0xa
    80000102:	3b079073          	csrw	pmpaddr0,a5
    
    // 设置PMP配置寄存器0
    // 0xf = NAPOT | R | W | X (自然对齐的2的幂 + 读写执行权限)
    write_csr(pmpcfg0, 0xf);
    80000106:	3a07d073          	csrw	pmpcfg0,15
    
    // ========== 5. 初始化定时器中断 ==========
    // 为操作系统调度准备定时器中断
    timerinit();
    8000010a:	00000097          	auipc	ra,0x0
    8000010e:	036080e7          	jalr	54(ra) # 80000140 <timerinit>
    
    // ========== 6. 保存CPU ID ==========
    // 将硬件线程ID保存到tp寄存器，供后续使用
    // 在多核系统中，每个核心需要知道自己的ID
    int id;
    asm volatile("csrr %0, mhartid" : "=r"(id)); // 避免函数调用 直接使用内联汇编
    80000112:	f14027f3          	csrr	a5,mhartid
    80000116:	fcf42623          	sw	a5,-52(s0)
    asm volatile("mv tp, %0" : : "r" (id));  // tp = CSR 0x4
    8000011a:	fcc42783          	lw	a5,-52(s0)
    8000011e:	823e                	mv	tp,a5
    // int id = r_mhartid();
    // w_tp(id);
    
    // 调试标记：准备特权级切换
    *(volatile char*)0x10000000 = 'S';
    80000120:	100007b7          	lui	a5,0x10000
    80000124:	05300713          	li	a4,83
    80000128:	00e78023          	sb	a4,0(a5) # 10000000 <_entry-0x70000000>
    // ========== 7. 执行特权级切换 ==========
    // mret指令会：
    // 1. 将特权级切换到mstatus.MPP指定的模式(Supervisor)
    // 2. 跳转到mepc寄存器指定的地址(kmain)
    // 3. 恢复中断使能状态
    asm volatile("mret");
    8000012c:	30200073          	mret
    
    // 注意：代码永远不会执行到这里
    // 如果执行到这里，说明mret失败了
    *(volatile char*)0x10000000 = 'F';  // Failure标记
    80000130:	100007b7          	lui	a5,0x10000
    80000134:	04600713          	li	a4,70
    80000138:	00e78023          	sb	a4,0(a5) # 10000000 <_entry-0x70000000>
    while(1) {}
    8000013c:	0001                	nop
    8000013e:	bffd                	j	8000013c <start+0xc6>

0000000080000140 <timerinit>:

/*
 * timerinit() - 初始化定时器中断
 * 配置机器模式定时器，为操作系统调度提供时钟源
 */
void timerinit(void) {
    80000140:	7139                	add	sp,sp,-64
    80000142:	fc06                	sd	ra,56(sp)
    80000144:	f822                	sd	s0,48(sp)
    80000146:	0080                	add	s0,sp,64
    // 调试标记：初始化定时器
    *(volatile char*)0x10000000 = 't';
    80000148:	100007b7          	lui	a5,0x10000
    8000014c:	07400713          	li	a4,116
    80000150:	00e78023          	sb	a4,0(a5) # 10000000 <_entry-0x70000000>
    
    int id;
    asm volatile("csrr %0, mhartid" : "=r"(id));
    80000154:	f14027f3          	csrr	a5,mhartid
    80000158:	fef42623          	sw	a5,-20(s0)

    // ========== 允许Supervisor访问时间寄存器 ==========
    // mcounteren控制低特权级对性能计数器的访问
    write_csr(mcounteren, read_csr(mcounteren) | 2);
    8000015c:	306027f3          	csrr	a5,mcounteren
    80000160:	fef43023          	sd	a5,-32(s0)
    80000164:	fe043783          	ld	a5,-32(s0)
    80000168:	0027e793          	or	a5,a5,2
    8000016c:	30679073          	csrw	mcounteren,a5
    write_csr(menvcfg, read_csr(menvcfg) | (1L << 63));
    80000170:	30a027f3          	csrr	a5,0x30a
    80000174:	fcf43c23          	sd	a5,-40(s0)
    80000178:	fd843703          	ld	a4,-40(s0)
    8000017c:	57fd                	li	a5,-1
    8000017e:	17fe                	sll	a5,a5,0x3f
    80000180:	8fd9                	or	a5,a5,a4
    80000182:	30a79073          	csrw	0x30a,a5

    // ========== 设置机器模式trap向量处理定时器 ==========
    write_csr(mtvec, (uint64_t)timervec);
    80000186:	00006797          	auipc	a5,0x6
    8000018a:	8da78793          	add	a5,a5,-1830 # 80005a60 <timervec>
    8000018e:	30579073          	csrw	mtvec,a5

    // 配置mscratch供timervec使用:
    // [0..2] 暂存寄存器, [3] mtimecmp地址, [4] interval
    uint64_t* scratch = &timer_scratch[id][0];
    80000192:	fec42703          	lw	a4,-20(s0)
    80000196:	87ba                	mv	a5,a4
    80000198:	078a                	sll	a5,a5,0x2
    8000019a:	97ba                	add	a5,a5,a4
    8000019c:	078e                	sll	a5,a5,0x3
    8000019e:	00007717          	auipc	a4,0x7
    800001a2:	cc270713          	add	a4,a4,-830 # 80006e60 <timer_scratch>
    800001a6:	97ba                	add	a5,a5,a4
    800001a8:	fcf43823          	sd	a5,-48(s0)
    scratch[3] = CLINT_MTIMECMP(id);
    800001ac:	fec42783          	lw	a5,-20(s0)
    800001b0:	0037979b          	sllw	a5,a5,0x3
    800001b4:	2781                	sext.w	a5,a5
    800001b6:	86be                	mv	a3,a5
    800001b8:	fd043783          	ld	a5,-48(s0)
    800001bc:	07e1                	add	a5,a5,24
    800001be:	02004737          	lui	a4,0x2004
    800001c2:	9736                	add	a4,a4,a3
    800001c4:	e398                	sd	a4,0(a5)
    scratch[4] = TICK_INTERVAL;
    800001c6:	fd043783          	ld	a5,-48(s0)
    800001ca:	02078793          	add	a5,a5,32
    800001ce:	000f4737          	lui	a4,0xf4
    800001d2:	24070713          	add	a4,a4,576 # f4240 <_entry-0x7ff0bdc0>
    800001d6:	e398                	sd	a4,0(a5)
    write_csr(mscratch, (uint64_t)scratch);
    800001d8:	fd043783          	ld	a5,-48(s0)
    800001dc:	34079073          	csrw	mscratch,a5

    // ========== 使能机器模式定时器中断 ==========
    write_csr(mie, read_csr(mie) | MIE_MTIE);
    800001e0:	304027f3          	csrr	a5,mie
    800001e4:	fcf43423          	sd	a5,-56(s0)
    800001e8:	fc843783          	ld	a5,-56(s0)
    800001ec:	0807e793          	or	a5,a5,128
    800001f0:	30479073          	csrw	mie,a5

    // ========== 设置第一次定时器中断 ==========
    sbi_set_timer(get_time() + TICK_INTERVAL);
    800001f4:	00004097          	auipc	ra,0x4
    800001f8:	dfc080e7          	jalr	-516(ra) # 80003ff0 <get_time>
    800001fc:	872a                	mv	a4,a0
    800001fe:	000f47b7          	lui	a5,0xf4
    80000202:	24078793          	add	a5,a5,576 # f4240 <_entry-0x7ff0bdc0>
    80000206:	97ba                	add	a5,a5,a4
    80000208:	853e                	mv	a0,a5
    8000020a:	00004097          	auipc	ra,0x4
    8000020e:	e02080e7          	jalr	-510(ra) # 8000400c <sbi_set_timer>

    // 调试标记：定时器初始化完成
    *(volatile char*)0x10000000 = 'T';
    80000212:	100007b7          	lui	a5,0x10000
    80000216:	05400713          	li	a4,84
    8000021a:	00e78023          	sb	a4,0(a5) # 10000000 <_entry-0x70000000>
}
    8000021e:	0001                	nop
    80000220:	70e2                	ld	ra,56(sp)
    80000222:	7442                	ld	s0,48(sp)
    80000224:	6121                	add	sp,sp,64
    80000226:	8082                	ret

0000000080000228 <r_sstatus>:
#define SSTATUS_SIE (1L << 1)  // Supervisor Interrupt Enable
#define SSTATUS_UIE (1L << 0)  // User Interrupt Enable

static inline uint64
r_sstatus()
{
    80000228:	1101                	add	sp,sp,-32
    8000022a:	ec22                	sd	s0,24(sp)
    8000022c:	1000                	add	s0,sp,32
  uint64 x;
  asm volatile("csrr %0, sstatus" : "=r" (x) );
    8000022e:	100027f3          	csrr	a5,sstatus
    80000232:	fef43423          	sd	a5,-24(s0)
  return x;
    80000236:	fe843783          	ld	a5,-24(s0)
}
    8000023a:	853e                	mv	a0,a5
    8000023c:	6462                	ld	s0,24(sp)
    8000023e:	6105                	add	sp,sp,32
    80000240:	8082                	ret

0000000080000242 <w_sstatus>:

static inline void 
w_sstatus(uint64 x)
{
    80000242:	1101                	add	sp,sp,-32
    80000244:	ec22                	sd	s0,24(sp)
    80000246:	1000                	add	s0,sp,32
    80000248:	fea43423          	sd	a0,-24(s0)
  asm volatile("csrw sstatus, %0" : : "r" (x));
    8000024c:	fe843783          	ld	a5,-24(s0)
    80000250:	10079073          	csrw	sstatus,a5
}
    80000254:	0001                	nop
    80000256:	6462                	ld	s0,24(sp)
    80000258:	6105                	add	sp,sp,32
    8000025a:	8082                	ret

000000008000025c <r_satp>:
  asm volatile("csrw satp, %0" : : "r" (x));
}

static inline uint64
r_satp()
{
    8000025c:	1101                	add	sp,sp,-32
    8000025e:	ec22                	sd	s0,24(sp)
    80000260:	1000                	add	s0,sp,32
  uint64 x;
  asm volatile("csrr %0, satp" : "=r" (x) );
    80000262:	180027f3          	csrr	a5,satp
    80000266:	fef43423          	sd	a5,-24(s0)
  return x;
    8000026a:	fe843783          	ld	a5,-24(s0)
}
    8000026e:	853e                	mv	a0,a5
    80000270:	6462                	ld	s0,24(sp)
    80000272:	6105                	add	sp,sp,32
    80000274:	8082                	ret

0000000080000276 <intr_on>:
}

// enable device interrupts
static inline void
intr_on()
{
    80000276:	1141                	add	sp,sp,-16
    80000278:	e406                	sd	ra,8(sp)
    8000027a:	e022                	sd	s0,0(sp)
    8000027c:	0800                	add	s0,sp,16
  w_sstatus(r_sstatus() | SSTATUS_SIE);
    8000027e:	00000097          	auipc	ra,0x0
    80000282:	faa080e7          	jalr	-86(ra) # 80000228 <r_sstatus>
    80000286:	87aa                	mv	a5,a0
    80000288:	0027e793          	or	a5,a5,2
    8000028c:	853e                	mv	a0,a5
    8000028e:	00000097          	auipc	ra,0x0
    80000292:	fb4080e7          	jalr	-76(ra) # 80000242 <w_sstatus>
}
    80000296:	0001                	nop
    80000298:	60a2                	ld	ra,8(sp)
    8000029a:	6402                	ld	s0,0(sp)
    8000029c:	0141                	add	sp,sp,16
    8000029e:	8082                	ret

00000000800002a0 <read_csr_sstatus>:
int test_bss_var;
static int test_static_var;
int test_data_var = 42;

// 读取当前特权级
static inline unsigned long read_csr_sstatus(void) {
    800002a0:	1101                	add	sp,sp,-32
    800002a2:	ec22                	sd	s0,24(sp)
    800002a4:	1000                	add	s0,sp,32
    unsigned long val;
    // sstatus寄存器 bit8 (SPP) = 1 表示上次特权级为Supervisor模式
    // sstatus寄存器 bit5 (SPIE) = 1 表示进入Supervisor模式时中断使能
    // sstatus寄存器 bit1 (SIE) = 1 表示Supervisor模式中断使能
    asm volatile("csrr %0, sstatus" : "=r"(val));
    800002a6:	100027f3          	csrr	a5,sstatus
    800002aa:	fef43423          	sd	a5,-24(s0)
    return val;
    800002ae:	fe843783          	ld	a5,-24(s0)
}
    800002b2:	853e                	mv	a0,a5
    800002b4:	6462                	ld	s0,24(sp)
    800002b6:	6105                	add	sp,sp,32
    800002b8:	8082                	ret

00000000800002ba <read_csr_tp>:

// 获取当前CPU ID - 使用数字寄存器号
static inline uint64 read_csr_tp(void) {
    800002ba:	1101                	add	sp,sp,-32
    800002bc:	ec22                	sd	s0,24(sp)
    800002be:	1000                	add	s0,sp,32
    uint64 val;
    asm volatile("mv %0, tp" : "=r"(val));  // tp = CSR 0x4
    800002c0:	8792                	mv	a5,tp
    800002c2:	fef43423          	sd	a5,-24(s0)
    return val;
    800002c6:	fe843783          	ld	a5,-24(s0)
}
    800002ca:	853e                	mv	a0,a5
    800002cc:	6462                	ld	s0,24(sp)
    800002ce:	6105                	add	sp,sp,32
    800002d0:	8082                	ret

00000000800002d2 <kmain>:
/*
 * kmain() - Supervisor模式下的主函数
 * 由start.c通过mret跳转到此函数
 * 运行在Supervisor模式，具有适当的权限隔离
 */
void kmain(void) {
    800002d2:	7179                	add	sp,sp,-48
    800002d4:	f406                	sd	ra,40(sp)
    800002d6:	f022                	sd	s0,32(sp)
    800002d8:	1800                	add	s0,sp,48
    // 调试标记：进入Supervisor模式主函数
    uart_putc('M');
    800002da:	04d00513          	li	a0,77
    800002de:	00000097          	auipc	ra,0x0
    800002e2:	230080e7          	jalr	560(ra) # 8000050e <uart_putc>

    // 1. 初始化串口驱动
    uart_init();
    800002e6:	00000097          	auipc	ra,0x0
    800002ea:	2d0080e7          	jalr	720(ra) # 800005b6 <uart_init>

    printf("\n==========================================\n");
    800002ee:	00006517          	auipc	a0,0x6
    800002f2:	82250513          	add	a0,a0,-2014 # 80005b10 <swtch+0x74>
    800002f6:	00005097          	auipc	ra,0x5
    800002fa:	5e0080e7          	jalr	1504(ra) # 800058d6 <printf>
    printf("    RISC-V Kernel v2.1 (VM enabled)\n");
    800002fe:	00006517          	auipc	a0,0x6
    80000302:	84250513          	add	a0,a0,-1982 # 80005b40 <swtch+0xa4>
    80000306:	00005097          	auipc	ra,0x5
    8000030a:	5d0080e7          	jalr	1488(ra) # 800058d6 <printf>
    printf("    Three-Stage Boot: entry->start->kmain\n");
    8000030e:	00006517          	auipc	a0,0x6
    80000312:	85a50513          	add	a0,a0,-1958 # 80005b68 <swtch+0xcc>
    80000316:	00005097          	auipc	ra,0x5
    8000031a:	5c0080e7          	jalr	1472(ra) # 800058d6 <printf>
    printf("    Running in Supervisor Mode\n");
    8000031e:	00006517          	auipc	a0,0x6
    80000322:	87a50513          	add	a0,a0,-1926 # 80005b98 <swtch+0xfc>
    80000326:	00005097          	auipc	ra,0x5
    8000032a:	5b0080e7          	jalr	1456(ra) # 800058d6 <printf>
    printf("==========================================\n");
    8000032e:	00006517          	auipc	a0,0x6
    80000332:	88a50513          	add	a0,a0,-1910 # 80005bb8 <swtch+0x11c>
    80000336:	00005097          	auipc	ra,0x5
    8000033a:	5a0080e7          	jalr	1440(ra) # 800058d6 <printf>

    unsigned long cpu_id = read_csr_tp();
    8000033e:	00000097          	auipc	ra,0x0
    80000342:	f7c080e7          	jalr	-132(ra) # 800002ba <read_csr_tp>
    80000346:	fea43423          	sd	a0,-24(s0)
    unsigned long sstatus = read_csr_sstatus();
    8000034a:	00000097          	auipc	ra,0x0
    8000034e:	f56080e7          	jalr	-170(ra) # 800002a0 <read_csr_sstatus>
    80000352:	fea43023          	sd	a0,-32(s0)
    printf("CPU ID: %lu\n", cpu_id);
    80000356:	fe843583          	ld	a1,-24(s0)
    8000035a:	00006517          	auipc	a0,0x6
    8000035e:	88e50513          	add	a0,a0,-1906 # 80005be8 <swtch+0x14c>
    80000362:	00005097          	auipc	ra,0x5
    80000366:	574080e7          	jalr	1396(ra) # 800058d6 <printf>
    printf("Supervisor Status Register: 0x%lx\n", sstatus);
    8000036a:	fe043583          	ld	a1,-32(s0)
    8000036e:	00006517          	auipc	a0,0x6
    80000372:	88a50513          	add	a0,a0,-1910 # 80005bf8 <swtch+0x15c>
    80000376:	00005097          	auipc	ra,0x5
    8000037a:	560080e7          	jalr	1376(ra) # 800058d6 <printf>

    // Park secondary harts to avoid re-running global init (SMP not supported yet).
    if (cpu_id != 0) {
    8000037e:	fe843783          	ld	a5,-24(s0)
    80000382:	cf91                	beqz	a5,8000039e <kmain+0xcc>
        printf("[kmain] secondary hart %lu parked (no SMP init yet)\n", cpu_id);
    80000384:	fe843583          	ld	a1,-24(s0)
    80000388:	00006517          	auipc	a0,0x6
    8000038c:	89850513          	add	a0,a0,-1896 # 80005c20 <swtch+0x184>
    80000390:	00005097          	auipc	ra,0x5
    80000394:	546080e7          	jalr	1350(ra) # 800058d6 <printf>
        while (1) {
            asm volatile("wfi");
    80000398:	10500073          	wfi
    8000039c:	bff5                	j	80000398 <kmain+0xc6>
        }
    }

    // 验证BSS段是否正确清零
    if (test_bss_var != 0 || test_static_var != 0) {
    8000039e:	00007797          	auipc	a5,0x7
    800003a2:	ab278793          	add	a5,a5,-1358 # 80006e50 <test_bss_var>
    800003a6:	439c                	lw	a5,0(a5)
    800003a8:	e799                	bnez	a5,800003b6 <kmain+0xe4>
    800003aa:	00007797          	auipc	a5,0x7
    800003ae:	b0678793          	add	a5,a5,-1274 # 80006eb0 <test_static_var>
    800003b2:	439c                	lw	a5,0(a5)
    800003b4:	cb89                	beqz	a5,800003c6 <kmain+0xf4>
        panic("BSS segment not properly cleared");
    800003b6:	00006517          	auipc	a0,0x6
    800003ba:	8a250513          	add	a0,a0,-1886 # 80005c58 <swtch+0x1bc>
    800003be:	00005097          	auipc	ra,0x5
    800003c2:	5b0080e7          	jalr	1456(ra) # 8000596e <panic>
    }
    if (test_data_var != 42) {
    800003c6:	00007797          	auipc	a5,0x7
    800003ca:	a7278793          	add	a5,a5,-1422 # 80006e38 <test_data_var>
    800003ce:	439c                	lw	a5,0(a5)
    800003d0:	873e                	mv	a4,a5
    800003d2:	02a00793          	li	a5,42
    800003d6:	00f70a63          	beq	a4,a5,800003ea <kmain+0x118>
        panic("Data segment corrupted");
    800003da:	00006517          	auipc	a0,0x6
    800003de:	8a650513          	add	a0,a0,-1882 # 80005c80 <swtch+0x1e4>
    800003e2:	00005097          	auipc	ra,0x5
    800003e6:	58c080e7          	jalr	1420(ra) # 8000596e <panic>
    }
    printf("BSS and data checks passed\n");
    800003ea:	00006517          	auipc	a0,0x6
    800003ee:	8ae50513          	add	a0,a0,-1874 # 80005c98 <swtch+0x1fc>
    800003f2:	00005097          	auipc	ra,0x5
    800003f6:	4e4080e7          	jalr	1252(ra) # 800058d6 <printf>

    pmem_dump_layout();
    800003fa:	00000097          	auipc	ra,0x0
    800003fe:	752080e7          	jalr	1874(ra) # 80000b4c <pmem_dump_layout>

    // 初始化S模式trap框架并开启中断
    trap_init();
    80000402:	00004097          	auipc	ra,0x4
    80000406:	d34080e7          	jalr	-716(ra) # 80004136 <trap_init>
    intr_on();
    8000040a:	00000097          	auipc	ra,0x0
    8000040e:	e6c080e7          	jalr	-404(ra) # 80000276 <intr_on>

    // 初始化物理内存管理器并运行自测
    pmm_init();
    80000412:	00000097          	auipc	ra,0x0
    80000416:	440080e7          	jalr	1088(ra) # 80000852 <pmm_init>
    pmm_selftest();
    8000041a:	00000097          	auipc	ra,0x0
    8000041e:	530080e7          	jalr	1328(ra) # 8000094a <pmm_selftest>

    // 独立测试组件
    test_physical_memory();
    80000422:	00004097          	auipc	ra,0x4
    80000426:	0aa080e7          	jalr	170(ra) # 800044cc <test_physical_memory>
    test_pagetable();
    8000042a:	00004097          	auipc	ra,0x4
    8000042e:	25a080e7          	jalr	602(ra) # 80004684 <test_pagetable>
    vmem_selftest();
    80000432:	00001097          	auipc	ra,0x1
    80000436:	ffa080e7          	jalr	-6(ra) # 8000142c <vmem_selftest>
    run_pmem_stress_test();
    8000043a:	00004097          	auipc	ra,0x4
    8000043e:	4ca080e7          	jalr	1226(ra) # 80004904 <run_pmem_stress_test>

    // 建立并启用内核页表
    pagetable_t kpgtbl = vmem_setup_kernel();
    80000442:	00001097          	auipc	ra,0x1
    80000446:	d62080e7          	jalr	-670(ra) # 800011a4 <vmem_setup_kernel>
    8000044a:	fca43c23          	sd	a0,-40(s0)
    vmem_enable(kpgtbl);
    8000044e:	fd843503          	ld	a0,-40(s0)
    80000452:	00001097          	auipc	ra,0x1
    80000456:	f3e080e7          	jalr	-194(ra) # 80001390 <vmem_enable>
    printf("[kmain] paging enabled, satp=0x%lx\n", r_satp());
    8000045a:	00000097          	auipc	ra,0x0
    8000045e:	e02080e7          	jalr	-510(ra) # 8000025c <r_satp>
    80000462:	87aa                	mv	a5,a0
    80000464:	85be                	mv	a1,a5
    80000466:	00006517          	auipc	a0,0x6
    8000046a:	85250513          	add	a0,a0,-1966 # 80005cb8 <swtch+0x21c>
    8000046e:	00005097          	auipc	ra,0x5
    80000472:	468080e7          	jalr	1128(ra) # 800058d6 <printf>

    test_virtual_memory();
    80000476:	00004097          	auipc	ra,0x4
    8000047a:	348080e7          	jalr	840(ra) # 800047be <test_virtual_memory>
    run_vm_mapping_test();
    8000047e:	00004097          	auipc	ra,0x4
    80000482:	79c080e7          	jalr	1948(ra) # 80004c1a <run_vm_mapping_test>
    test_timer_interrupt();
    80000486:	00005097          	auipc	ra,0x5
    8000048a:	a0c080e7          	jalr	-1524(ra) # 80004e92 <test_timer_interrupt>
    test_exception_handling();
    8000048e:	00005097          	auipc	ra,0x5
    80000492:	afa080e7          	jalr	-1286(ra) # 80004f88 <test_exception_handling>
    test_interrupt_overhead();
    80000496:	00005097          	auipc	ra,0x5
    8000049a:	b14080e7          	jalr	-1260(ra) # 80004faa <test_interrupt_overhead>
    printf("System initialization complete!\n");
    8000049e:	00006517          	auipc	a0,0x6
    800004a2:	84250513          	add	a0,a0,-1982 # 80005ce0 <swtch+0x244>
    800004a6:	00005097          	auipc	ra,0x5
    800004aa:	430080e7          	jalr	1072(ra) # 800058d6 <printf>
    printf("Kernel ready for further extensions.\n");
    800004ae:	00006517          	auipc	a0,0x6
    800004b2:	85a50513          	add	a0,a0,-1958 # 80005d08 <swtch+0x26c>
    800004b6:	00005097          	auipc	ra,0x5
    800004ba:	420080e7          	jalr	1056(ra) # 800058d6 <printf>

    // Enter kernel thread/process scheduler test (does not return).
    test_process_subsystem();
    800004be:	00003097          	auipc	ra,0x3
    800004c2:	828080e7          	jalr	-2008(ra) # 80002ce6 <test_process_subsystem>
    while (1) {
        asm volatile("wfi");
    800004c6:	10500073          	wfi
    800004ca:	bff5                	j	800004c6 <kmain+0x1f4>

00000000800004cc <uart_read_reg>:

#define LSR_THRE        0x20    // 发送保持寄存器空 (Transmit Holding Register Empty) 第5位
#define LCR_DLAB        0x80    // 设置DLAB位 (Divisor Latch Access Bit) 第7位

// 读寄存器的辅助函数
static inline unsigned char uart_read_reg(uintptr_t reg) { // 使用uintptr_t(在stdint.h中定义)确保正确存储内存地址不会截断
    800004cc:	1101                	add	sp,sp,-32
    800004ce:	ec22                	sd	s0,24(sp)
    800004d0:	1000                	add	s0,sp,32
    800004d2:	fea43423          	sd	a0,-24(s0)
    return *(volatile unsigned char*)reg;
    800004d6:	fe843783          	ld	a5,-24(s0)
    800004da:	0007c783          	lbu	a5,0(a5)
    800004de:	0ff7f793          	zext.b	a5,a5
}
    800004e2:	853e                	mv	a0,a5
    800004e4:	6462                	ld	s0,24(sp)
    800004e6:	6105                	add	sp,sp,32
    800004e8:	8082                	ret

00000000800004ea <uart_write_reg>:

// 写寄存器的辅助函数
static inline void uart_write_reg(uintptr_t reg, unsigned char val) {
    800004ea:	1101                	add	sp,sp,-32
    800004ec:	ec22                	sd	s0,24(sp)
    800004ee:	1000                	add	s0,sp,32
    800004f0:	fea43423          	sd	a0,-24(s0)
    800004f4:	87ae                	mv	a5,a1
    800004f6:	fef403a3          	sb	a5,-25(s0)
    *(volatile unsigned char*)reg = val;
    800004fa:	fe843783          	ld	a5,-24(s0)
    800004fe:	fe744703          	lbu	a4,-25(s0)
    80000502:	00e78023          	sb	a4,0(a5)
}
    80000506:	0001                	nop
    80000508:	6462                	ld	s0,24(sp)
    8000050a:	6105                	add	sp,sp,32
    8000050c:	8082                	ret

000000008000050e <uart_putc>:

// 发送单个字符
void uart_putc(char c) {
    8000050e:	1101                	add	sp,sp,-32
    80000510:	ec06                	sd	ra,24(sp)
    80000512:	e822                	sd	s0,16(sp)
    80000514:	1000                	add	s0,sp,32
    80000516:	87aa                	mv	a5,a0
    80000518:	fef407a3          	sb	a5,-17(s0)
    while (!(uart_read_reg(UART_LSR) & LSR_THRE)) {
    8000051c:	0001                	nop
    8000051e:	100007b7          	lui	a5,0x10000
    80000522:	00578513          	add	a0,a5,5 # 10000005 <_entry-0x6ffffffb>
    80000526:	00000097          	auipc	ra,0x0
    8000052a:	fa6080e7          	jalr	-90(ra) # 800004cc <uart_read_reg>
    8000052e:	87aa                	mv	a5,a0
    80000530:	2781                	sext.w	a5,a5
    80000532:	0207f793          	and	a5,a5,32
    80000536:	2781                	sext.w	a5,a5
    80000538:	d3fd                	beqz	a5,8000051e <uart_putc+0x10>
        // 等待发送寄存器空
        // 如果LSR的THRE位(第5位)为1，表示发送保持寄存器空，可以写入新数据；否则寄存器满，等待
    }
    uart_write_reg(UART_THR, c);
    8000053a:	fef44783          	lbu	a5,-17(s0)
    8000053e:	85be                	mv	a1,a5
    80000540:	10000537          	lui	a0,0x10000
    80000544:	00000097          	auipc	ra,0x0
    80000548:	fa6080e7          	jalr	-90(ra) # 800004ea <uart_write_reg>
}
    8000054c:	0001                	nop
    8000054e:	60e2                	ld	ra,24(sp)
    80000550:	6442                	ld	s0,16(sp)
    80000552:	6105                	add	sp,sp,32
    80000554:	8082                	ret

0000000080000556 <uart_puts>:

// 发送字符串
void uart_puts(const char *s) {
    80000556:	1101                	add	sp,sp,-32
    80000558:	ec06                	sd	ra,24(sp)
    8000055a:	e822                	sd	s0,16(sp)
    8000055c:	1000                	add	s0,sp,32
    8000055e:	fea43423          	sd	a0,-24(s0)
    if (s == 0) return;
    80000562:	fe843783          	ld	a5,-24(s0)
    80000566:	c3b9                	beqz	a5,800005ac <uart_puts+0x56>
    
    while (*s) {
    80000568:	a825                	j	800005a0 <uart_puts+0x4a>
        if (*s == '\n') { // Unix的换行符\n需要转换为\r\n 即光标回到行首+光标移到下一行
    8000056a:	fe843783          	ld	a5,-24(s0)
    8000056e:	0007c783          	lbu	a5,0(a5)
    80000572:	873e                	mv	a4,a5
    80000574:	47a9                	li	a5,10
    80000576:	00f71763          	bne	a4,a5,80000584 <uart_puts+0x2e>
            uart_putc('\r');
    8000057a:	4535                	li	a0,13
    8000057c:	00000097          	auipc	ra,0x0
    80000580:	f92080e7          	jalr	-110(ra) # 8000050e <uart_putc>
        }
        uart_putc(*s);
    80000584:	fe843783          	ld	a5,-24(s0)
    80000588:	0007c783          	lbu	a5,0(a5)
    8000058c:	853e                	mv	a0,a5
    8000058e:	00000097          	auipc	ra,0x0
    80000592:	f80080e7          	jalr	-128(ra) # 8000050e <uart_putc>
        s++;
    80000596:	fe843783          	ld	a5,-24(s0)
    8000059a:	0785                	add	a5,a5,1
    8000059c:	fef43423          	sd	a5,-24(s0)
    while (*s) {
    800005a0:	fe843783          	ld	a5,-24(s0)
    800005a4:	0007c783          	lbu	a5,0(a5)
    800005a8:	f3e9                	bnez	a5,8000056a <uart_puts+0x14>
    800005aa:	a011                	j	800005ae <uart_puts+0x58>
    if (s == 0) return;
    800005ac:	0001                	nop
    }
}
    800005ae:	60e2                	ld	ra,24(sp)
    800005b0:	6442                	ld	s0,16(sp)
    800005b2:	6105                	add	sp,sp,32
    800005b4:	8082                	ret

00000000800005b6 <uart_init>:

void uart_init(void) {
    800005b6:	1141                	add	sp,sp,-16
    800005b8:	e406                	sd	ra,8(sp)
    800005ba:	e022                	sd	s0,0(sp)
    800005bc:	0800                	add	s0,sp,16
    uart_write_reg(UART_IER, 0x00);     // 禁用中断
    800005be:	4581                	li	a1,0
    800005c0:	100007b7          	lui	a5,0x10000
    800005c4:	00178513          	add	a0,a5,1 # 10000001 <_entry-0x6fffffff>
    800005c8:	00000097          	auipc	ra,0x0
    800005cc:	f22080e7          	jalr	-222(ra) # 800004ea <uart_write_reg>
    uart_write_reg(UART_LCR, LCR_DLAB); // 设置DLAB位，允许访问DLL和DLH寄存器
    800005d0:	08000593          	li	a1,128
    800005d4:	100007b7          	lui	a5,0x10000
    800005d8:	00378513          	add	a0,a5,3 # 10000003 <_entry-0x6ffffffd>
    800005dc:	00000097          	auipc	ra,0x0
    800005e0:	f0e080e7          	jalr	-242(ra) # 800004ea <uart_write_reg>
    uart_write_reg(UART_DLL, 0x03);     // 设置波特率分频器低位
    800005e4:	458d                	li	a1,3
    800005e6:	10000537          	lui	a0,0x10000
    800005ea:	00000097          	auipc	ra,0x0
    800005ee:	f00080e7          	jalr	-256(ra) # 800004ea <uart_write_reg>
    uart_write_reg(UART_DLH, 0x00);     // 设置波特率分频器高位
    800005f2:	4581                	li	a1,0
    800005f4:	100007b7          	lui	a5,0x10000
    800005f8:	00178513          	add	a0,a5,1 # 10000001 <_entry-0x6fffffff>
    800005fc:	00000097          	auipc	ra,0x0
    80000600:	eee080e7          	jalr	-274(ra) # 800004ea <uart_write_reg>
    uart_write_reg(UART_LCR, 0x03);     // 清除DLAB位，设置数据格式为8位数据，无校验，1位停止位 (8N1)
    80000604:	458d                	li	a1,3
    80000606:	100007b7          	lui	a5,0x10000
    8000060a:	00378513          	add	a0,a5,3 # 10000003 <_entry-0x6ffffffd>
    8000060e:	00000097          	auipc	ra,0x0
    80000612:	edc080e7          	jalr	-292(ra) # 800004ea <uart_write_reg>
    uart_write_reg(UART_FCR, 0x07);     // 启用FIFO，清除接收和发送FIFO (FCR寄存器的第0位启用FIFO，第1位清除接收FIFO，第2位清除发送FIFO)
    80000616:	459d                	li	a1,7
    80000618:	100007b7          	lui	a5,0x10000
    8000061c:	00278513          	add	a0,a5,2 # 10000002 <_entry-0x6ffffffe>
    80000620:	00000097          	auipc	ra,0x0
    80000624:	eca080e7          	jalr	-310(ra) # 800004ea <uart_write_reg>
    uart_write_reg(UART_MCR, 0x03);     // 设置调制解调器控制寄存器 (设置RTS和DTR信号，第0位DTR，第1位RTS)
    80000628:	458d                	li	a1,3
    8000062a:	100007b7          	lui	a5,0x10000
    8000062e:	00478513          	add	a0,a5,4 # 10000004 <_entry-0x6ffffffc>
    80000632:	00000097          	auipc	ra,0x0
    80000636:	eb8080e7          	jalr	-328(ra) # 800004ea <uart_write_reg>
    
    uart_putc('U');
    8000063a:	05500513          	li	a0,85
    8000063e:	00000097          	auipc	ra,0x0
    80000642:	ed0080e7          	jalr	-304(ra) # 8000050e <uart_putc>
    80000646:	0001                	nop
    80000648:	60a2                	ld	ra,8(sp)
    8000064a:	6402                	ld	s0,0(sp)
    8000064c:	0141                	add	sp,sp,16
    8000064e:	8082                	ret

0000000080000650 <aligned_page>:
static run_t* free_list = NULL;
static size_t total_pages = 0;
static size_t free_pages_cnt = 0;
static uint64 managed_start = 0;

static inline int aligned_page(void* pa) {
    80000650:	1101                	add	sp,sp,-32
    80000652:	ec22                	sd	s0,24(sp)
    80000654:	1000                	add	s0,sp,32
    80000656:	fea43423          	sd	a0,-24(s0)
    return ((uint64)pa % PGSIZE) == 0;
    8000065a:	fe843703          	ld	a4,-24(s0)
    8000065e:	6785                	lui	a5,0x1
    80000660:	17fd                	add	a5,a5,-1 # fff <_entry-0x7ffff001>
    80000662:	8ff9                	and	a5,a5,a4
    80000664:	0017b793          	seqz	a5,a5
    80000668:	0ff7f793          	zext.b	a5,a5
    8000066c:	2781                	sext.w	a5,a5
}
    8000066e:	853e                	mv	a0,a5
    80000670:	6462                	ld	s0,24(sp)
    80000672:	6105                	add	sp,sp,32
    80000674:	8082                	ret

0000000080000676 <free_page>:

void free_page(void* pa) {
    80000676:	7179                	add	sp,sp,-48
    80000678:	f406                	sd	ra,40(sp)
    8000067a:	f022                	sd	s0,32(sp)
    8000067c:	1800                	add	s0,sp,48
    8000067e:	fca43c23          	sd	a0,-40(s0)
    if (pa == NULL) {
    80000682:	fd843783          	ld	a5,-40(s0)
    80000686:	c7ad                	beqz	a5,800006f0 <free_page+0x7a>
        return;
    }
    if (!aligned_page(pa)) {
    80000688:	fd843503          	ld	a0,-40(s0)
    8000068c:	00000097          	auipc	ra,0x0
    80000690:	fc4080e7          	jalr	-60(ra) # 80000650 <aligned_page>
    80000694:	87aa                	mv	a5,a0
    80000696:	ef89                	bnez	a5,800006b0 <free_page+0x3a>
        printf("[pmm] free_page: unaligned address 0x%lx\n", (uint64)pa);
    80000698:	fd843783          	ld	a5,-40(s0)
    8000069c:	85be                	mv	a1,a5
    8000069e:	00005517          	auipc	a0,0x5
    800006a2:	69250513          	add	a0,a0,1682 # 80005d30 <swtch+0x294>
    800006a6:	00005097          	auipc	ra,0x5
    800006aa:	230080e7          	jalr	560(ra) # 800058d6 <printf>
        return;
    800006ae:	a091                	j	800006f2 <free_page+0x7c>
    }
    run_t* r = (run_t*)pa;
    800006b0:	fd843783          	ld	a5,-40(s0)
    800006b4:	fef43423          	sd	a5,-24(s0)
    r->next = free_list;
    800006b8:	00007797          	auipc	a5,0x7
    800006bc:	80078793          	add	a5,a5,-2048 # 80006eb8 <free_list>
    800006c0:	6398                	ld	a4,0(a5)
    800006c2:	fe843783          	ld	a5,-24(s0)
    800006c6:	e398                	sd	a4,0(a5)
    free_list = r;
    800006c8:	00006797          	auipc	a5,0x6
    800006cc:	7f078793          	add	a5,a5,2032 # 80006eb8 <free_list>
    800006d0:	fe843703          	ld	a4,-24(s0)
    800006d4:	e398                	sd	a4,0(a5)
    free_pages_cnt++;
    800006d6:	00006797          	auipc	a5,0x6
    800006da:	7f278793          	add	a5,a5,2034 # 80006ec8 <free_pages_cnt>
    800006de:	639c                	ld	a5,0(a5)
    800006e0:	00178713          	add	a4,a5,1
    800006e4:	00006797          	auipc	a5,0x6
    800006e8:	7e478793          	add	a5,a5,2020 # 80006ec8 <free_pages_cnt>
    800006ec:	e398                	sd	a4,0(a5)
    800006ee:	a011                	j	800006f2 <free_page+0x7c>
        return;
    800006f0:	0001                	nop
}
    800006f2:	70a2                	ld	ra,40(sp)
    800006f4:	7402                	ld	s0,32(sp)
    800006f6:	6145                	add	sp,sp,48
    800006f8:	8082                	ret

00000000800006fa <alloc_page>:

void* alloc_page(void) {
    800006fa:	1101                	add	sp,sp,-32
    800006fc:	ec06                	sd	ra,24(sp)
    800006fe:	e822                	sd	s0,16(sp)
    80000700:	1000                	add	s0,sp,32
    if (free_list == NULL) {
    80000702:	00006797          	auipc	a5,0x6
    80000706:	7b678793          	add	a5,a5,1974 # 80006eb8 <free_list>
    8000070a:	639c                	ld	a5,0(a5)
    8000070c:	e399                	bnez	a5,80000712 <alloc_page+0x18>
        return NULL;
    8000070e:	4781                	li	a5,0
    80000710:	a0b1                	j	8000075c <alloc_page+0x62>
    }
    run_t* r = free_list;
    80000712:	00006797          	auipc	a5,0x6
    80000716:	7a678793          	add	a5,a5,1958 # 80006eb8 <free_list>
    8000071a:	639c                	ld	a5,0(a5)
    8000071c:	fef43423          	sd	a5,-24(s0)
    free_list = r->next;
    80000720:	fe843783          	ld	a5,-24(s0)
    80000724:	6398                	ld	a4,0(a5)
    80000726:	00006797          	auipc	a5,0x6
    8000072a:	79278793          	add	a5,a5,1938 # 80006eb8 <free_list>
    8000072e:	e398                	sd	a4,0(a5)
    free_pages_cnt--;
    80000730:	00006797          	auipc	a5,0x6
    80000734:	79878793          	add	a5,a5,1944 # 80006ec8 <free_pages_cnt>
    80000738:	639c                	ld	a5,0(a5)
    8000073a:	fff78713          	add	a4,a5,-1
    8000073e:	00006797          	auipc	a5,0x6
    80000742:	78a78793          	add	a5,a5,1930 # 80006ec8 <free_pages_cnt>
    80000746:	e398                	sd	a4,0(a5)
    memset(r, 0, PGSIZE);
    80000748:	6605                	lui	a2,0x1
    8000074a:	4581                	li	a1,0
    8000074c:	fe843503          	ld	a0,-24(s0)
    80000750:	00005097          	auipc	ra,0x5
    80000754:	87c080e7          	jalr	-1924(ra) # 80004fcc <memset>
    return (void*)r;
    80000758:	fe843783          	ld	a5,-24(s0)
}
    8000075c:	853e                	mv	a0,a5
    8000075e:	60e2                	ld	ra,24(sp)
    80000760:	6442                	ld	s0,16(sp)
    80000762:	6105                	add	sp,sp,32
    80000764:	8082                	ret

0000000080000766 <alloc_pages>:

void* alloc_pages(int n) {
    80000766:	711d                	add	sp,sp,-96
    80000768:	ec86                	sd	ra,88(sp)
    8000076a:	e8a2                	sd	s0,80(sp)
    8000076c:	1080                	add	s0,sp,96
    8000076e:	87aa                	mv	a5,a0
    80000770:	faf42623          	sw	a5,-84(s0)
    if (n <= 0) return NULL;
    80000774:	fac42783          	lw	a5,-84(s0)
    80000778:	2781                	sext.w	a5,a5
    8000077a:	00f04463          	bgtz	a5,80000782 <alloc_pages+0x1c>
    8000077e:	4781                	li	a5,0
    80000780:	a0e1                	j	80000848 <alloc_pages+0xe2>
    void* first = NULL;
    80000782:	fe043423          	sd	zero,-24(s0)
    void* prev = NULL;
    80000786:	fe043023          	sd	zero,-32(s0)
    for (int i = 0; i < n; i++) {
    8000078a:	fc042e23          	sw	zero,-36(s0)
    8000078e:	a8ad                	j	80000808 <alloc_pages+0xa2>
        void* p = alloc_page();
    80000790:	00000097          	auipc	ra,0x0
    80000794:	f6a080e7          	jalr	-150(ra) # 800006fa <alloc_page>
    80000798:	faa43c23          	sd	a0,-72(s0)
        if (!p) {
    8000079c:	fb843783          	ld	a5,-72(s0)
    800007a0:	eb95                	bnez	a5,800007d4 <alloc_pages+0x6e>
            // rollback
            void* cur = first;
    800007a2:	fe843783          	ld	a5,-24(s0)
    800007a6:	fcf43823          	sd	a5,-48(s0)
            while (cur) {
    800007aa:	a005                	j	800007ca <alloc_pages+0x64>
                void* next = *((void**)cur);
    800007ac:	fd043783          	ld	a5,-48(s0)
    800007b0:	639c                	ld	a5,0(a5)
    800007b2:	faf43823          	sd	a5,-80(s0)
                free_page(cur);
    800007b6:	fd043503          	ld	a0,-48(s0)
    800007ba:	00000097          	auipc	ra,0x0
    800007be:	ebc080e7          	jalr	-324(ra) # 80000676 <free_page>
                cur = next;
    800007c2:	fb043783          	ld	a5,-80(s0)
    800007c6:	fcf43823          	sd	a5,-48(s0)
            while (cur) {
    800007ca:	fd043783          	ld	a5,-48(s0)
    800007ce:	fff9                	bnez	a5,800007ac <alloc_pages+0x46>
            }
            return NULL;
    800007d0:	4781                	li	a5,0
    800007d2:	a89d                	j	80000848 <alloc_pages+0xe2>
        }
        // reuse first word to chain pages while we allocate
        *((void**)p) = NULL;
    800007d4:	fb843783          	ld	a5,-72(s0)
    800007d8:	0007b023          	sd	zero,0(a5)
        if (prev) {
    800007dc:	fe043783          	ld	a5,-32(s0)
    800007e0:	c799                	beqz	a5,800007ee <alloc_pages+0x88>
            *((void**)prev) = p;
    800007e2:	fe043783          	ld	a5,-32(s0)
    800007e6:	fb843703          	ld	a4,-72(s0)
    800007ea:	e398                	sd	a4,0(a5)
    800007ec:	a029                	j	800007f6 <alloc_pages+0x90>
        } else {
            first = p;
    800007ee:	fb843783          	ld	a5,-72(s0)
    800007f2:	fef43423          	sd	a5,-24(s0)
        }
        prev = p;
    800007f6:	fb843783          	ld	a5,-72(s0)
    800007fa:	fef43023          	sd	a5,-32(s0)
    for (int i = 0; i < n; i++) {
    800007fe:	fdc42783          	lw	a5,-36(s0)
    80000802:	2785                	addw	a5,a5,1
    80000804:	fcf42e23          	sw	a5,-36(s0)
    80000808:	fdc42783          	lw	a5,-36(s0)
    8000080c:	873e                	mv	a4,a5
    8000080e:	fac42783          	lw	a5,-84(s0)
    80000812:	2701                	sext.w	a4,a4
    80000814:	2781                	sext.w	a5,a5
    80000816:	f6f74de3          	blt	a4,a5,80000790 <alloc_pages+0x2a>
    }
    // break temporary links
    void* cur = first;
    8000081a:	fe843783          	ld	a5,-24(s0)
    8000081e:	fcf43423          	sd	a5,-56(s0)
    while (cur) {
    80000822:	a831                	j	8000083e <alloc_pages+0xd8>
        void* next = *((void**)cur);
    80000824:	fc843783          	ld	a5,-56(s0)
    80000828:	639c                	ld	a5,0(a5)
    8000082a:	fcf43023          	sd	a5,-64(s0)
        *((void**)cur) = 0;
    8000082e:	fc843783          	ld	a5,-56(s0)
    80000832:	0007b023          	sd	zero,0(a5)
        cur = next;
    80000836:	fc043783          	ld	a5,-64(s0)
    8000083a:	fcf43423          	sd	a5,-56(s0)
    while (cur) {
    8000083e:	fc843783          	ld	a5,-56(s0)
    80000842:	f3ed                	bnez	a5,80000824 <alloc_pages+0xbe>
    }
    return first;
    80000844:	fe843783          	ld	a5,-24(s0)
}
    80000848:	853e                	mv	a0,a5
    8000084a:	60e6                	ld	ra,88(sp)
    8000084c:	6446                	ld	s0,80(sp)
    8000084e:	6125                	add	sp,sp,96
    80000850:	8082                	ret

0000000080000852 <pmm_init>:

void pmm_init(void) {
    80000852:	7179                	add	sp,sp,-48
    80000854:	f406                	sd	ra,40(sp)
    80000856:	f022                	sd	s0,32(sp)
    80000858:	1800                	add	s0,sp,48
    pmem_range_t r = pmem_usable_range();
    8000085a:	00000097          	auipc	ra,0x0
    8000085e:	232080e7          	jalr	562(ra) # 80000a8c <pmem_usable_range>
    80000862:	872a                	mv	a4,a0
    80000864:	87ae                	mv	a5,a1
    80000866:	fce43823          	sd	a4,-48(s0)
    8000086a:	fcf43c23          	sd	a5,-40(s0)
    managed_start = PGROUNDUP(r.start);
    8000086e:	fd043703          	ld	a4,-48(s0)
    80000872:	6785                	lui	a5,0x1
    80000874:	17fd                	add	a5,a5,-1 # fff <_entry-0x7ffff001>
    80000876:	973e                	add	a4,a4,a5
    80000878:	77fd                	lui	a5,0xfffff
    8000087a:	8f7d                	and	a4,a4,a5
    8000087c:	00006797          	auipc	a5,0x6
    80000880:	65478793          	add	a5,a5,1620 # 80006ed0 <managed_start>
    80000884:	e398                	sd	a4,0(a5)
    uint64 limit = PGROUNDDOWN(r.end);
    80000886:	fd843703          	ld	a4,-40(s0)
    8000088a:	77fd                	lui	a5,0xfffff
    8000088c:	8ff9                	and	a5,a5,a4
    8000088e:	fef43023          	sd	a5,-32(s0)
    for (uint64 p = managed_start; p + PGSIZE <= limit; p += PGSIZE) {
    80000892:	00006797          	auipc	a5,0x6
    80000896:	63e78793          	add	a5,a5,1598 # 80006ed0 <managed_start>
    8000089a:	639c                	ld	a5,0(a5)
    8000089c:	fef43423          	sd	a5,-24(s0)
    800008a0:	a815                	j	800008d4 <pmm_init+0x82>
        total_pages++;
    800008a2:	00006797          	auipc	a5,0x6
    800008a6:	61e78793          	add	a5,a5,1566 # 80006ec0 <total_pages>
    800008aa:	639c                	ld	a5,0(a5)
    800008ac:	00178713          	add	a4,a5,1
    800008b0:	00006797          	auipc	a5,0x6
    800008b4:	61078793          	add	a5,a5,1552 # 80006ec0 <total_pages>
    800008b8:	e398                	sd	a4,0(a5)
        free_page((void*)p);
    800008ba:	fe843783          	ld	a5,-24(s0)
    800008be:	853e                	mv	a0,a5
    800008c0:	00000097          	auipc	ra,0x0
    800008c4:	db6080e7          	jalr	-586(ra) # 80000676 <free_page>
    for (uint64 p = managed_start; p + PGSIZE <= limit; p += PGSIZE) {
    800008c8:	fe843703          	ld	a4,-24(s0)
    800008cc:	6785                	lui	a5,0x1
    800008ce:	97ba                	add	a5,a5,a4
    800008d0:	fef43423          	sd	a5,-24(s0)
    800008d4:	fe843703          	ld	a4,-24(s0)
    800008d8:	6785                	lui	a5,0x1
    800008da:	97ba                	add	a5,a5,a4
    800008dc:	fe043703          	ld	a4,-32(s0)
    800008e0:	fcf771e3          	bgeu	a4,a5,800008a2 <pmm_init+0x50>
    }
    printf("[pmm] init: %lu pages managed (start=0x%lx end=0x%lx)\n",
    800008e4:	00006797          	auipc	a5,0x6
    800008e8:	5dc78793          	add	a5,a5,1500 # 80006ec0 <total_pages>
    800008ec:	6398                	ld	a4,0(a5)
    800008ee:	00006797          	auipc	a5,0x6
    800008f2:	5e278793          	add	a5,a5,1506 # 80006ed0 <managed_start>
    800008f6:	639c                	ld	a5,0(a5)
    800008f8:	fe043683          	ld	a3,-32(s0)
    800008fc:	863e                	mv	a2,a5
    800008fe:	85ba                	mv	a1,a4
    80000900:	00005517          	auipc	a0,0x5
    80000904:	46050513          	add	a0,a0,1120 # 80005d60 <swtch+0x2c4>
    80000908:	00005097          	auipc	ra,0x5
    8000090c:	fce080e7          	jalr	-50(ra) # 800058d6 <printf>
           total_pages, managed_start, limit);
}
    80000910:	0001                	nop
    80000912:	70a2                	ld	ra,40(sp)
    80000914:	7402                	ld	s0,32(sp)
    80000916:	6145                	add	sp,sp,48
    80000918:	8082                	ret

000000008000091a <pmm_total_pages>:

size_t pmm_total_pages(void) {
    8000091a:	1141                	add	sp,sp,-16
    8000091c:	e422                	sd	s0,8(sp)
    8000091e:	0800                	add	s0,sp,16
    return total_pages;
    80000920:	00006797          	auipc	a5,0x6
    80000924:	5a078793          	add	a5,a5,1440 # 80006ec0 <total_pages>
    80000928:	639c                	ld	a5,0(a5)
}
    8000092a:	853e                	mv	a0,a5
    8000092c:	6422                	ld	s0,8(sp)
    8000092e:	0141                	add	sp,sp,16
    80000930:	8082                	ret

0000000080000932 <pmm_free_pages>:

size_t pmm_free_pages(void) {
    80000932:	1141                	add	sp,sp,-16
    80000934:	e422                	sd	s0,8(sp)
    80000936:	0800                	add	s0,sp,16
    return free_pages_cnt;
    80000938:	00006797          	auipc	a5,0x6
    8000093c:	59078793          	add	a5,a5,1424 # 80006ec8 <free_pages_cnt>
    80000940:	639c                	ld	a5,0(a5)
}
    80000942:	853e                	mv	a0,a5
    80000944:	6422                	ld	s0,8(sp)
    80000946:	0141                	add	sp,sp,16
    80000948:	8082                	ret

000000008000094a <pmm_selftest>:

void pmm_selftest(void) {
    8000094a:	7139                	add	sp,sp,-64
    8000094c:	fc06                	sd	ra,56(sp)
    8000094e:	f822                	sd	s0,48(sp)
    80000950:	0080                	add	s0,sp,64
    printf("[pmm] selftest start\n");
    80000952:	00005517          	auipc	a0,0x5
    80000956:	44650513          	add	a0,a0,1094 # 80005d98 <swtch+0x2fc>
    8000095a:	00005097          	auipc	ra,0x5
    8000095e:	f7c080e7          	jalr	-132(ra) # 800058d6 <printf>
    size_t before = pmm_free_pages();
    80000962:	00000097          	auipc	ra,0x0
    80000966:	fd0080e7          	jalr	-48(ra) # 80000932 <pmm_free_pages>
    8000096a:	fea43423          	sd	a0,-24(s0)
    void* p1 = alloc_page();
    8000096e:	00000097          	auipc	ra,0x0
    80000972:	d8c080e7          	jalr	-628(ra) # 800006fa <alloc_page>
    80000976:	fea43023          	sd	a0,-32(s0)
    void* p2 = alloc_page();
    8000097a:	00000097          	auipc	ra,0x0
    8000097e:	d80080e7          	jalr	-640(ra) # 800006fa <alloc_page>
    80000982:	fca43c23          	sd	a0,-40(s0)
    void* p3 = alloc_page();
    80000986:	00000097          	auipc	ra,0x0
    8000098a:	d74080e7          	jalr	-652(ra) # 800006fa <alloc_page>
    8000098e:	fca43823          	sd	a0,-48(s0)
    if (!p1 || !p2 || !p3) {
    80000992:	fe043783          	ld	a5,-32(s0)
    80000996:	c799                	beqz	a5,800009a4 <pmm_selftest+0x5a>
    80000998:	fd843783          	ld	a5,-40(s0)
    8000099c:	c781                	beqz	a5,800009a4 <pmm_selftest+0x5a>
    8000099e:	fd043783          	ld	a5,-48(s0)
    800009a2:	e38d                	bnez	a5,800009c4 <pmm_selftest+0x7a>
        printf("[pmm] selftest: allocation failed\n");
    800009a4:	00005517          	auipc	a0,0x5
    800009a8:	40c50513          	add	a0,a0,1036 # 80005db0 <swtch+0x314>
    800009ac:	00005097          	auipc	ra,0x5
    800009b0:	f2a080e7          	jalr	-214(ra) # 800058d6 <printf>
        panic("pmm selftest alloc");
    800009b4:	00005517          	auipc	a0,0x5
    800009b8:	42450513          	add	a0,a0,1060 # 80005dd8 <swtch+0x33c>
    800009bc:	00005097          	auipc	ra,0x5
    800009c0:	fb2080e7          	jalr	-78(ra) # 8000596e <panic>
    }
    uint64* a = (uint64*)p1;
    800009c4:	fe043783          	ld	a5,-32(s0)
    800009c8:	fcf43423          	sd	a5,-56(s0)
    uint64* b = (uint64*)p2;
    800009cc:	fd843783          	ld	a5,-40(s0)
    800009d0:	fcf43023          	sd	a5,-64(s0)
    a[0] = 0xdeadbeefdeadbeef;
    800009d4:	fc843783          	ld	a5,-56(s0)
    800009d8:	00005717          	auipc	a4,0x5
    800009dc:	46070713          	add	a4,a4,1120 # 80005e38 <swtch+0x39c>
    800009e0:	6318                	ld	a4,0(a4)
    800009e2:	e398                	sd	a4,0(a5)
    b[0] = 0x1122334455667788;
    800009e4:	fc043783          	ld	a5,-64(s0)
    800009e8:	00005717          	auipc	a4,0x5
    800009ec:	45870713          	add	a4,a4,1112 # 80005e40 <swtch+0x3a4>
    800009f0:	6318                	ld	a4,0(a4)
    800009f2:	e398                	sd	a4,0(a5)
    if (a[0] != 0xdeadbeefdeadbeef || b[0] != 0x1122334455667788) {
    800009f4:	fc843783          	ld	a5,-56(s0)
    800009f8:	6398                	ld	a4,0(a5)
    800009fa:	00005797          	auipc	a5,0x5
    800009fe:	43e78793          	add	a5,a5,1086 # 80005e38 <swtch+0x39c>
    80000a02:	639c                	ld	a5,0(a5)
    80000a04:	00f71c63          	bne	a4,a5,80000a1c <pmm_selftest+0xd2>
    80000a08:	fc043783          	ld	a5,-64(s0)
    80000a0c:	6398                	ld	a4,0(a5)
    80000a0e:	00005797          	auipc	a5,0x5
    80000a12:	43278793          	add	a5,a5,1074 # 80005e40 <swtch+0x3a4>
    80000a16:	639c                	ld	a5,0(a5)
    80000a18:	00f70a63          	beq	a4,a5,80000a2c <pmm_selftest+0xe2>
        panic("pmm selftest pattern");
    80000a1c:	00005517          	auipc	a0,0x5
    80000a20:	3d450513          	add	a0,a0,980 # 80005df0 <swtch+0x354>
    80000a24:	00005097          	auipc	ra,0x5
    80000a28:	f4a080e7          	jalr	-182(ra) # 8000596e <panic>
    }
    free_page(p1);
    80000a2c:	fe043503          	ld	a0,-32(s0)
    80000a30:	00000097          	auipc	ra,0x0
    80000a34:	c46080e7          	jalr	-954(ra) # 80000676 <free_page>
    free_page(p2);
    80000a38:	fd843503          	ld	a0,-40(s0)
    80000a3c:	00000097          	auipc	ra,0x0
    80000a40:	c3a080e7          	jalr	-966(ra) # 80000676 <free_page>
    free_page(p3);
    80000a44:	fd043503          	ld	a0,-48(s0)
    80000a48:	00000097          	auipc	ra,0x0
    80000a4c:	c2e080e7          	jalr	-978(ra) # 80000676 <free_page>
    if (pmm_free_pages() != before) {
    80000a50:	00000097          	auipc	ra,0x0
    80000a54:	ee2080e7          	jalr	-286(ra) # 80000932 <pmm_free_pages>
    80000a58:	872a                	mv	a4,a0
    80000a5a:	fe843783          	ld	a5,-24(s0)
    80000a5e:	00e78a63          	beq	a5,a4,80000a72 <pmm_selftest+0x128>
        panic("pmm selftest leak");
    80000a62:	00005517          	auipc	a0,0x5
    80000a66:	3a650513          	add	a0,a0,934 # 80005e08 <swtch+0x36c>
    80000a6a:	00005097          	auipc	ra,0x5
    80000a6e:	f04080e7          	jalr	-252(ra) # 8000596e <panic>
    }
    printf("[pmm] selftest passed\n");
    80000a72:	00005517          	auipc	a0,0x5
    80000a76:	3ae50513          	add	a0,a0,942 # 80005e20 <swtch+0x384>
    80000a7a:	00005097          	auipc	ra,0x5
    80000a7e:	e5c080e7          	jalr	-420(ra) # 800058d6 <printf>
}
    80000a82:	0001                	nop
    80000a84:	70e2                	ld	ra,56(sp)
    80000a86:	7442                	ld	s0,48(sp)
    80000a88:	6121                	add	sp,sp,64
    80000a8a:	8082                	ret

0000000080000a8c <pmem_usable_range>:
extern char _stack_top[];

static pmem_range_t usable;
static int pmem_inited = 0;

pmem_range_t pmem_usable_range(void) {
    80000a8c:	1101                	add	sp,sp,-32
    80000a8e:	ec22                	sd	s0,24(sp)
    80000a90:	1000                	add	s0,sp,32
    if (usable.start == 0 && usable.end == 0) {
    80000a92:	00006797          	auipc	a5,0x6
    80000a96:	44678793          	add	a5,a5,1094 # 80006ed8 <usable>
    80000a9a:	639c                	ld	a5,0(a5)
    80000a9c:	e79d                	bnez	a5,80000aca <pmem_usable_range+0x3e>
    80000a9e:	00006797          	auipc	a5,0x6
    80000aa2:	43a78793          	add	a5,a5,1082 # 80006ed8 <usable>
    80000aa6:	679c                	ld	a5,8(a5)
    80000aa8:	e38d                	bnez	a5,80000aca <pmem_usable_range+0x3e>
        usable.start = (uint64)_stack_top;
    80000aaa:	0000e717          	auipc	a4,0xe
    80000aae:	55670713          	add	a4,a4,1366 # 8000f000 <_stack_top>
    80000ab2:	00006797          	auipc	a5,0x6
    80000ab6:	42678793          	add	a5,a5,1062 # 80006ed8 <usable>
    80000aba:	e398                	sd	a4,0(a5)
        usable.end = RAM_END;
    80000abc:	00006797          	auipc	a5,0x6
    80000ac0:	41c78793          	add	a5,a5,1052 # 80006ed8 <usable>
    80000ac4:	4745                	li	a4,17
    80000ac6:	076e                	sll	a4,a4,0x1b
    80000ac8:	e798                	sd	a4,8(a5)
    }
    return usable;
    80000aca:	00006797          	auipc	a5,0x6
    80000ace:	40e78793          	add	a5,a5,1038 # 80006ed8 <usable>
    80000ad2:	6398                	ld	a4,0(a5)
    80000ad4:	fee43023          	sd	a4,-32(s0)
    80000ad8:	679c                	ld	a5,8(a5)
    80000ada:	fef43423          	sd	a5,-24(s0)
    80000ade:	fe043703          	ld	a4,-32(s0)
    80000ae2:	fe843783          	ld	a5,-24(s0)
    80000ae6:	863a                	mv	a2,a4
    80000ae8:	86be                	mv	a3,a5
    80000aea:	8732                	mv	a4,a2
    80000aec:	87b6                	mv	a5,a3
}
    80000aee:	853a                	mv	a0,a4
    80000af0:	85be                	mv	a1,a5
    80000af2:	6462                	ld	s0,24(sp)
    80000af4:	6105                	add	sp,sp,32
    80000af6:	8082                	ret

0000000080000af8 <pmem_usable_start>:

uint64 pmem_usable_start(void) {
    80000af8:	1101                	add	sp,sp,-32
    80000afa:	ec06                	sd	ra,24(sp)
    80000afc:	e822                	sd	s0,16(sp)
    80000afe:	1000                	add	s0,sp,32
    return pmem_usable_range().start;
    80000b00:	00000097          	auipc	ra,0x0
    80000b04:	f8c080e7          	jalr	-116(ra) # 80000a8c <pmem_usable_range>
    80000b08:	872a                	mv	a4,a0
    80000b0a:	87ae                	mv	a5,a1
    80000b0c:	fee43023          	sd	a4,-32(s0)
    80000b10:	fef43423          	sd	a5,-24(s0)
    80000b14:	fe043783          	ld	a5,-32(s0)
}
    80000b18:	853e                	mv	a0,a5
    80000b1a:	60e2                	ld	ra,24(sp)
    80000b1c:	6442                	ld	s0,16(sp)
    80000b1e:	6105                	add	sp,sp,32
    80000b20:	8082                	ret

0000000080000b22 <pmem_usable_end>:

uint64 pmem_usable_end(void) {
    80000b22:	1101                	add	sp,sp,-32
    80000b24:	ec06                	sd	ra,24(sp)
    80000b26:	e822                	sd	s0,16(sp)
    80000b28:	1000                	add	s0,sp,32
    return pmem_usable_range().end;
    80000b2a:	00000097          	auipc	ra,0x0
    80000b2e:	f62080e7          	jalr	-158(ra) # 80000a8c <pmem_usable_range>
    80000b32:	872a                	mv	a4,a0
    80000b34:	87ae                	mv	a5,a1
    80000b36:	fee43023          	sd	a4,-32(s0)
    80000b3a:	fef43423          	sd	a5,-24(s0)
    80000b3e:	fe843783          	ld	a5,-24(s0)
}
    80000b42:	853e                	mv	a0,a5
    80000b44:	60e2                	ld	ra,24(sp)
    80000b46:	6442                	ld	s0,16(sp)
    80000b48:	6105                	add	sp,sp,32
    80000b4a:	8082                	ret

0000000080000b4c <pmem_dump_layout>:

void pmem_dump_layout(void) {
    80000b4c:	7179                	add	sp,sp,-48
    80000b4e:	f406                	sd	ra,40(sp)
    80000b50:	f022                	sd	s0,32(sp)
    80000b52:	ec26                	sd	s1,24(sp)
    80000b54:	e84a                	sd	s2,16(sp)
    80000b56:	e44e                	sd	s3,8(sp)
    80000b58:	1800                	add	s0,sp,48
    printf("[pmem] kernel end=0x%lx, stack top=0x%lx, usable=[0x%lx, 0x%lx)\n",
    80000b5a:	0000c497          	auipc	s1,0xc
    80000b5e:	4e648493          	add	s1,s1,1254 # 8000d040 <_bss_end>
    80000b62:	0000e917          	auipc	s2,0xe
    80000b66:	49e90913          	add	s2,s2,1182 # 8000f000 <_stack_top>
    80000b6a:	00000097          	auipc	ra,0x0
    80000b6e:	f8e080e7          	jalr	-114(ra) # 80000af8 <pmem_usable_start>
    80000b72:	89aa                	mv	s3,a0
    80000b74:	00000097          	auipc	ra,0x0
    80000b78:	fae080e7          	jalr	-82(ra) # 80000b22 <pmem_usable_end>
    80000b7c:	87aa                	mv	a5,a0
    80000b7e:	873e                	mv	a4,a5
    80000b80:	86ce                	mv	a3,s3
    80000b82:	864a                	mv	a2,s2
    80000b84:	85a6                	mv	a1,s1
    80000b86:	00005517          	auipc	a0,0x5
    80000b8a:	2c250513          	add	a0,a0,706 # 80005e48 <swtch+0x3ac>
    80000b8e:	00005097          	auipc	ra,0x5
    80000b92:	d48080e7          	jalr	-696(ra) # 800058d6 <printf>
           (uint64)end, (uint64)_stack_top, pmem_usable_start(), pmem_usable_end());
}
    80000b96:	0001                	nop
    80000b98:	70a2                	ld	ra,40(sp)
    80000b9a:	7402                	ld	s0,32(sp)
    80000b9c:	64e2                	ld	s1,24(sp)
    80000b9e:	6942                	ld	s2,16(sp)
    80000ba0:	69a2                	ld	s3,8(sp)
    80000ba2:	6145                	add	sp,sp,48
    80000ba4:	8082                	ret

0000000080000ba6 <pmem_init>:

void pmem_init(void) {
    80000ba6:	1141                	add	sp,sp,-16
    80000ba8:	e406                	sd	ra,8(sp)
    80000baa:	e022                	sd	s0,0(sp)
    80000bac:	0800                	add	s0,sp,16
    if (pmem_inited) return;
    80000bae:	00006797          	auipc	a5,0x6
    80000bb2:	33a78793          	add	a5,a5,826 # 80006ee8 <pmem_inited>
    80000bb6:	439c                	lw	a5,0(a5)
    80000bb8:	ef81                	bnez	a5,80000bd0 <pmem_init+0x2a>
    pmm_init();
    80000bba:	00000097          	auipc	ra,0x0
    80000bbe:	c98080e7          	jalr	-872(ra) # 80000852 <pmm_init>
    pmem_inited = 1;
    80000bc2:	00006797          	auipc	a5,0x6
    80000bc6:	32678793          	add	a5,a5,806 # 80006ee8 <pmem_inited>
    80000bca:	4705                	li	a4,1
    80000bcc:	c398                	sw	a4,0(a5)
    80000bce:	a011                	j	80000bd2 <pmem_init+0x2c>
    if (pmem_inited) return;
    80000bd0:	0001                	nop
}
    80000bd2:	60a2                	ld	ra,8(sp)
    80000bd4:	6402                	ld	s0,0(sp)
    80000bd6:	0141                	add	sp,sp,16
    80000bd8:	8082                	ret

0000000080000bda <pmem_alloc>:

void* pmem_alloc(int zero) {
    80000bda:	7179                	add	sp,sp,-48
    80000bdc:	f406                	sd	ra,40(sp)
    80000bde:	f022                	sd	s0,32(sp)
    80000be0:	1800                	add	s0,sp,48
    80000be2:	87aa                	mv	a5,a0
    80000be4:	fcf42e23          	sw	a5,-36(s0)
    void* p = alloc_page();
    80000be8:	00000097          	auipc	ra,0x0
    80000bec:	b12080e7          	jalr	-1262(ra) # 800006fa <alloc_page>
    80000bf0:	fea43423          	sd	a0,-24(s0)
    if (p && zero) {
    80000bf4:	fe843783          	ld	a5,-24(s0)
    80000bf8:	cf89                	beqz	a5,80000c12 <pmem_alloc+0x38>
    80000bfa:	fdc42783          	lw	a5,-36(s0)
    80000bfe:	2781                	sext.w	a5,a5
    80000c00:	cb89                	beqz	a5,80000c12 <pmem_alloc+0x38>
        memset(p, 0, PGSIZE);
    80000c02:	6605                	lui	a2,0x1
    80000c04:	4581                	li	a1,0
    80000c06:	fe843503          	ld	a0,-24(s0)
    80000c0a:	00004097          	auipc	ra,0x4
    80000c0e:	3c2080e7          	jalr	962(ra) # 80004fcc <memset>
    }
    return p;
    80000c12:	fe843783          	ld	a5,-24(s0)
}
    80000c16:	853e                	mv	a0,a5
    80000c18:	70a2                	ld	ra,40(sp)
    80000c1a:	7402                	ld	s0,32(sp)
    80000c1c:	6145                	add	sp,sp,48
    80000c1e:	8082                	ret

0000000080000c20 <pmem_free>:

void pmem_free(uint64 pa, int check) {
    80000c20:	1101                	add	sp,sp,-32
    80000c22:	ec06                	sd	ra,24(sp)
    80000c24:	e822                	sd	s0,16(sp)
    80000c26:	1000                	add	s0,sp,32
    80000c28:	fea43423          	sd	a0,-24(s0)
    80000c2c:	87ae                	mv	a5,a1
    80000c2e:	fef42223          	sw	a5,-28(s0)
    (void)check;
    free_page((void*)pa);
    80000c32:	fe843783          	ld	a5,-24(s0)
    80000c36:	853e                	mv	a0,a5
    80000c38:	00000097          	auipc	ra,0x0
    80000c3c:	a3e080e7          	jalr	-1474(ra) # 80000676 <free_page>
}
    80000c40:	0001                	nop
    80000c42:	60e2                	ld	ra,24(sp)
    80000c44:	6442                	ld	s0,16(sp)
    80000c46:	6105                	add	sp,sp,32
    80000c48:	8082                	ret

0000000080000c4a <w_satp>:
{
    80000c4a:	1101                	add	sp,sp,-32
    80000c4c:	ec22                	sd	s0,24(sp)
    80000c4e:	1000                	add	s0,sp,32
    80000c50:	fea43423          	sd	a0,-24(s0)
  asm volatile("csrw satp, %0" : : "r" (x));
    80000c54:	fe843783          	ld	a5,-24(s0)
    80000c58:	18079073          	csrw	satp,a5
}
    80000c5c:	0001                	nop
    80000c5e:	6462                	ld	s0,24(sp)
    80000c60:	6105                	add	sp,sp,32
    80000c62:	8082                	ret

0000000080000c64 <sfence_vma>:
}

// flush the TLB.
static inline void
sfence_vma()
{
    80000c64:	1141                	add	sp,sp,-16
    80000c66:	e422                	sd	s0,8(sp)
    80000c68:	0800                	add	s0,sp,16
  // the zero, zero means flush all TLB entries.
  asm volatile("sfence.vma zero, zero");
    80000c6a:	12000073          	sfence.vma
}
    80000c6e:	0001                	nop
    80000c70:	6422                	ld	s0,8(sp)
    80000c72:	0141                	add	sp,sp,16
    80000c74:	8082                	ret

0000000080000c76 <create_pagetable>:

static void freewalk(pagetable_t pagetable, int level);
static void dumpwalk(pagetable_t pagetable, int level, int indent, int* remaining);
static void map_range(pagetable_t pagetable, uint64 va_start, uint64 va_end, uint64 pa_start, int perm);

pagetable_t create_pagetable(void) {
    80000c76:	1101                	add	sp,sp,-32
    80000c78:	ec06                	sd	ra,24(sp)
    80000c7a:	e822                	sd	s0,16(sp)
    80000c7c:	1000                	add	s0,sp,32
    void* page = alloc_page();
    80000c7e:	00000097          	auipc	ra,0x0
    80000c82:	a7c080e7          	jalr	-1412(ra) # 800006fa <alloc_page>
    80000c86:	fea43423          	sd	a0,-24(s0)
    if (!page) return NULL;
    80000c8a:	fe843783          	ld	a5,-24(s0)
    80000c8e:	e399                	bnez	a5,80000c94 <create_pagetable+0x1e>
    80000c90:	4781                	li	a5,0
    80000c92:	a819                	j	80000ca8 <create_pagetable+0x32>
    memset(page, 0, PGSIZE);
    80000c94:	6605                	lui	a2,0x1
    80000c96:	4581                	li	a1,0
    80000c98:	fe843503          	ld	a0,-24(s0)
    80000c9c:	00004097          	auipc	ra,0x4
    80000ca0:	330080e7          	jalr	816(ra) # 80004fcc <memset>
    return (pagetable_t)page;
    80000ca4:	fe843783          	ld	a5,-24(s0)
}
    80000ca8:	853e                	mv	a0,a5
    80000caa:	60e2                	ld	ra,24(sp)
    80000cac:	6442                	ld	s0,16(sp)
    80000cae:	6105                	add	sp,sp,32
    80000cb0:	8082                	ret

0000000080000cb2 <walk_create>:

pte_t* walk_create(pagetable_t pagetable, uint64 va) {
    80000cb2:	7139                	add	sp,sp,-64
    80000cb4:	fc06                	sd	ra,56(sp)
    80000cb6:	f822                	sd	s0,48(sp)
    80000cb8:	0080                	add	s0,sp,64
    80000cba:	fca43423          	sd	a0,-56(s0)
    80000cbe:	fcb43023          	sd	a1,-64(s0)
    if (va >= MAXVA) return NULL;
    80000cc2:	fc043703          	ld	a4,-64(s0)
    80000cc6:	57fd                	li	a5,-1
    80000cc8:	83e9                	srl	a5,a5,0x1a
    80000cca:	00e7f463          	bgeu	a5,a4,80000cd2 <walk_create+0x20>
    80000cce:	4781                	li	a5,0
    80000cd0:	a065                	j	80000d78 <walk_create+0xc6>
    for (int level = 2; level > 0; level--) {
    80000cd2:	4789                	li	a5,2
    80000cd4:	fef42623          	sw	a5,-20(s0)
    80000cd8:	a051                	j	80000d5c <walk_create+0xaa>
        pte_t* pte = &pagetable[PX(level, va)];
    80000cda:	fec42783          	lw	a5,-20(s0)
    80000cde:	873e                	mv	a4,a5
    80000ce0:	87ba                	mv	a5,a4
    80000ce2:	0037979b          	sllw	a5,a5,0x3
    80000ce6:	9fb9                	addw	a5,a5,a4
    80000ce8:	2781                	sext.w	a5,a5
    80000cea:	27b1                	addw	a5,a5,12
    80000cec:	2781                	sext.w	a5,a5
    80000cee:	873e                	mv	a4,a5
    80000cf0:	fc043783          	ld	a5,-64(s0)
    80000cf4:	00e7d7b3          	srl	a5,a5,a4
    80000cf8:	1ff7f793          	and	a5,a5,511
    80000cfc:	078e                	sll	a5,a5,0x3
    80000cfe:	fc843703          	ld	a4,-56(s0)
    80000d02:	97ba                	add	a5,a5,a4
    80000d04:	fef43023          	sd	a5,-32(s0)
        if (*pte & PTE_V) {
    80000d08:	fe043783          	ld	a5,-32(s0)
    80000d0c:	639c                	ld	a5,0(a5)
    80000d0e:	8b85                	and	a5,a5,1
    80000d10:	cb89                	beqz	a5,80000d22 <walk_create+0x70>
            pagetable = (pagetable_t)PTE2PA(*pte);
    80000d12:	fe043783          	ld	a5,-32(s0)
    80000d16:	639c                	ld	a5,0(a5)
    80000d18:	83a9                	srl	a5,a5,0xa
    80000d1a:	07b2                	sll	a5,a5,0xc
    80000d1c:	fcf43423          	sd	a5,-56(s0)
    80000d20:	a80d                	j	80000d52 <walk_create+0xa0>
        } else {
            pagetable_t newtable = create_pagetable();
    80000d22:	00000097          	auipc	ra,0x0
    80000d26:	f54080e7          	jalr	-172(ra) # 80000c76 <create_pagetable>
    80000d2a:	fca43c23          	sd	a0,-40(s0)
            if (!newtable) return NULL;
    80000d2e:	fd843783          	ld	a5,-40(s0)
    80000d32:	e399                	bnez	a5,80000d38 <walk_create+0x86>
    80000d34:	4781                	li	a5,0
    80000d36:	a089                	j	80000d78 <walk_create+0xc6>
            *pte = PA2PTE(newtable) | PTE_V;
    80000d38:	fd843783          	ld	a5,-40(s0)
    80000d3c:	83b1                	srl	a5,a5,0xc
    80000d3e:	07aa                	sll	a5,a5,0xa
    80000d40:	0017e713          	or	a4,a5,1
    80000d44:	fe043783          	ld	a5,-32(s0)
    80000d48:	e398                	sd	a4,0(a5)
            pagetable = newtable;
    80000d4a:	fd843783          	ld	a5,-40(s0)
    80000d4e:	fcf43423          	sd	a5,-56(s0)
    for (int level = 2; level > 0; level--) {
    80000d52:	fec42783          	lw	a5,-20(s0)
    80000d56:	37fd                	addw	a5,a5,-1
    80000d58:	fef42623          	sw	a5,-20(s0)
    80000d5c:	fec42783          	lw	a5,-20(s0)
    80000d60:	2781                	sext.w	a5,a5
    80000d62:	f6f04ce3          	bgtz	a5,80000cda <walk_create+0x28>
        }
    }
    return &pagetable[PX(0, va)];
    80000d66:	fc043783          	ld	a5,-64(s0)
    80000d6a:	83b1                	srl	a5,a5,0xc
    80000d6c:	1ff7f793          	and	a5,a5,511
    80000d70:	078e                	sll	a5,a5,0x3
    80000d72:	fc843703          	ld	a4,-56(s0)
    80000d76:	97ba                	add	a5,a5,a4
}
    80000d78:	853e                	mv	a0,a5
    80000d7a:	70e2                	ld	ra,56(sp)
    80000d7c:	7442                	ld	s0,48(sp)
    80000d7e:	6121                	add	sp,sp,64
    80000d80:	8082                	ret

0000000080000d82 <walk_lookup>:

pte_t* walk_lookup(pagetable_t pagetable, uint64 va) {
    80000d82:	7179                	add	sp,sp,-48
    80000d84:	f422                	sd	s0,40(sp)
    80000d86:	1800                	add	s0,sp,48
    80000d88:	fca43c23          	sd	a0,-40(s0)
    80000d8c:	fcb43823          	sd	a1,-48(s0)
    if (va >= MAXVA) return NULL;
    80000d90:	fd043703          	ld	a4,-48(s0)
    80000d94:	57fd                	li	a5,-1
    80000d96:	83e9                	srl	a5,a5,0x1a
    80000d98:	00e7f463          	bgeu	a5,a4,80000da0 <walk_lookup+0x1e>
    80000d9c:	4781                	li	a5,0
    80000d9e:	a8ad                	j	80000e18 <walk_lookup+0x96>
    for (int level = 2; level > 0; level--) {
    80000da0:	4789                	li	a5,2
    80000da2:	fef42623          	sw	a5,-20(s0)
    80000da6:	a899                	j	80000dfc <walk_lookup+0x7a>
        pte_t* pte = &pagetable[PX(level, va)];
    80000da8:	fec42783          	lw	a5,-20(s0)
    80000dac:	873e                	mv	a4,a5
    80000dae:	87ba                	mv	a5,a4
    80000db0:	0037979b          	sllw	a5,a5,0x3
    80000db4:	9fb9                	addw	a5,a5,a4
    80000db6:	2781                	sext.w	a5,a5
    80000db8:	27b1                	addw	a5,a5,12
    80000dba:	2781                	sext.w	a5,a5
    80000dbc:	873e                	mv	a4,a5
    80000dbe:	fd043783          	ld	a5,-48(s0)
    80000dc2:	00e7d7b3          	srl	a5,a5,a4
    80000dc6:	1ff7f793          	and	a5,a5,511
    80000dca:	078e                	sll	a5,a5,0x3
    80000dcc:	fd843703          	ld	a4,-40(s0)
    80000dd0:	97ba                	add	a5,a5,a4
    80000dd2:	fef43023          	sd	a5,-32(s0)
        if ((*pte & PTE_V) == 0) return NULL;
    80000dd6:	fe043783          	ld	a5,-32(s0)
    80000dda:	639c                	ld	a5,0(a5)
    80000ddc:	8b85                	and	a5,a5,1
    80000dde:	e399                	bnez	a5,80000de4 <walk_lookup+0x62>
    80000de0:	4781                	li	a5,0
    80000de2:	a81d                	j	80000e18 <walk_lookup+0x96>
        pagetable = (pagetable_t)PTE2PA(*pte);
    80000de4:	fe043783          	ld	a5,-32(s0)
    80000de8:	639c                	ld	a5,0(a5)
    80000dea:	83a9                	srl	a5,a5,0xa
    80000dec:	07b2                	sll	a5,a5,0xc
    80000dee:	fcf43c23          	sd	a5,-40(s0)
    for (int level = 2; level > 0; level--) {
    80000df2:	fec42783          	lw	a5,-20(s0)
    80000df6:	37fd                	addw	a5,a5,-1
    80000df8:	fef42623          	sw	a5,-20(s0)
    80000dfc:	fec42783          	lw	a5,-20(s0)
    80000e00:	2781                	sext.w	a5,a5
    80000e02:	faf043e3          	bgtz	a5,80000da8 <walk_lookup+0x26>
    }
    return &pagetable[PX(0, va)];
    80000e06:	fd043783          	ld	a5,-48(s0)
    80000e0a:	83b1                	srl	a5,a5,0xc
    80000e0c:	1ff7f793          	and	a5,a5,511
    80000e10:	078e                	sll	a5,a5,0x3
    80000e12:	fd843703          	ld	a4,-40(s0)
    80000e16:	97ba                	add	a5,a5,a4
}
    80000e18:	853e                	mv	a0,a5
    80000e1a:	7422                	ld	s0,40(sp)
    80000e1c:	6145                	add	sp,sp,48
    80000e1e:	8082                	ret

0000000080000e20 <map_page>:

int map_page(pagetable_t pagetable, uint64 va, uint64 pa, int perm) {
    80000e20:	7139                	add	sp,sp,-64
    80000e22:	fc06                	sd	ra,56(sp)
    80000e24:	f822                	sd	s0,48(sp)
    80000e26:	0080                	add	s0,sp,64
    80000e28:	fca43c23          	sd	a0,-40(s0)
    80000e2c:	fcb43823          	sd	a1,-48(s0)
    80000e30:	fcc43423          	sd	a2,-56(s0)
    80000e34:	87b6                	mv	a5,a3
    80000e36:	fcf42223          	sw	a5,-60(s0)
    if (va % PGSIZE || pa % PGSIZE) return -1;
    80000e3a:	fd043703          	ld	a4,-48(s0)
    80000e3e:	6785                	lui	a5,0x1
    80000e40:	17fd                	add	a5,a5,-1 # fff <_entry-0x7ffff001>
    80000e42:	8ff9                	and	a5,a5,a4
    80000e44:	e799                	bnez	a5,80000e52 <map_page+0x32>
    80000e46:	fc843703          	ld	a4,-56(s0)
    80000e4a:	6785                	lui	a5,0x1
    80000e4c:	17fd                	add	a5,a5,-1 # fff <_entry-0x7ffff001>
    80000e4e:	8ff9                	and	a5,a5,a4
    80000e50:	c399                	beqz	a5,80000e56 <map_page+0x36>
    80000e52:	57fd                	li	a5,-1
    80000e54:	a0a9                	j	80000e9e <map_page+0x7e>
    pte_t* pte = walk_create(pagetable, va);
    80000e56:	fd043583          	ld	a1,-48(s0)
    80000e5a:	fd843503          	ld	a0,-40(s0)
    80000e5e:	00000097          	auipc	ra,0x0
    80000e62:	e54080e7          	jalr	-428(ra) # 80000cb2 <walk_create>
    80000e66:	fea43423          	sd	a0,-24(s0)
    if (!pte) return -1;
    80000e6a:	fe843783          	ld	a5,-24(s0)
    80000e6e:	e399                	bnez	a5,80000e74 <map_page+0x54>
    80000e70:	57fd                	li	a5,-1
    80000e72:	a035                	j	80000e9e <map_page+0x7e>
    if (*pte & PTE_V) {
    80000e74:	fe843783          	ld	a5,-24(s0)
    80000e78:	639c                	ld	a5,0(a5)
    80000e7a:	8b85                	and	a5,a5,1
    80000e7c:	c399                	beqz	a5,80000e82 <map_page+0x62>
        return -2; // already mapped
    80000e7e:	57f9                	li	a5,-2
    80000e80:	a839                	j	80000e9e <map_page+0x7e>
    }
    *pte = PA2PTE(pa) | perm | PTE_V;
    80000e82:	fc843783          	ld	a5,-56(s0)
    80000e86:	83b1                	srl	a5,a5,0xc
    80000e88:	00a79713          	sll	a4,a5,0xa
    80000e8c:	fc442783          	lw	a5,-60(s0)
    80000e90:	8fd9                	or	a5,a5,a4
    80000e92:	0017e713          	or	a4,a5,1
    80000e96:	fe843783          	ld	a5,-24(s0)
    80000e9a:	e398                	sd	a4,0(a5)
    return 0;
    80000e9c:	4781                	li	a5,0
}
    80000e9e:	853e                	mv	a0,a5
    80000ea0:	70e2                	ld	ra,56(sp)
    80000ea2:	7442                	ld	s0,48(sp)
    80000ea4:	6121                	add	sp,sp,64
    80000ea6:	8082                	ret

0000000080000ea8 <map_range>:

static void map_range(pagetable_t pagetable, uint64 va_start, uint64 va_end, uint64 pa_start, int perm) {
    80000ea8:	711d                	add	sp,sp,-96
    80000eaa:	ec86                	sd	ra,88(sp)
    80000eac:	e8a2                	sd	s0,80(sp)
    80000eae:	1080                	add	s0,sp,96
    80000eb0:	fca43423          	sd	a0,-56(s0)
    80000eb4:	fcb43023          	sd	a1,-64(s0)
    80000eb8:	fac43c23          	sd	a2,-72(s0)
    80000ebc:	fad43823          	sd	a3,-80(s0)
    80000ec0:	87ba                	mv	a5,a4
    80000ec2:	faf42623          	sw	a5,-84(s0)
    uint64 va = PGROUNDDOWN(va_start);
    80000ec6:	fc043703          	ld	a4,-64(s0)
    80000eca:	77fd                	lui	a5,0xfffff
    80000ecc:	8ff9                	and	a5,a5,a4
    80000ece:	fef43423          	sd	a5,-24(s0)
    uint64 pa = PGROUNDDOWN(pa_start);
    80000ed2:	fb043703          	ld	a4,-80(s0)
    80000ed6:	77fd                	lui	a5,0xfffff
    80000ed8:	8ff9                	and	a5,a5,a4
    80000eda:	fef43023          	sd	a5,-32(s0)
    for (; va < va_end; va += PGSIZE, pa += PGSIZE) {
    80000ede:	a895                	j	80000f52 <map_range+0xaa>
        int r = map_page(pagetable, va, pa, perm);
    80000ee0:	fac42783          	lw	a5,-84(s0)
    80000ee4:	86be                	mv	a3,a5
    80000ee6:	fe043603          	ld	a2,-32(s0)
    80000eea:	fe843583          	ld	a1,-24(s0)
    80000eee:	fc843503          	ld	a0,-56(s0)
    80000ef2:	00000097          	auipc	ra,0x0
    80000ef6:	f2e080e7          	jalr	-210(ra) # 80000e20 <map_page>
    80000efa:	87aa                	mv	a5,a0
    80000efc:	fcf42e23          	sw	a5,-36(s0)
        if (r != 0) {
    80000f00:	fdc42783          	lw	a5,-36(s0)
    80000f04:	2781                	sext.w	a5,a5
    80000f06:	cb95                	beqz	a5,80000f3a <map_range+0x92>
            printf("[vmem] map_range fail va=0x%lx pa=0x%lx perm=0x%x err=%d\n", va, pa, perm, r);
    80000f08:	fdc42703          	lw	a4,-36(s0)
    80000f0c:	fac42783          	lw	a5,-84(s0)
    80000f10:	86be                	mv	a3,a5
    80000f12:	fe043603          	ld	a2,-32(s0)
    80000f16:	fe843583          	ld	a1,-24(s0)
    80000f1a:	00005517          	auipc	a0,0x5
    80000f1e:	f7650513          	add	a0,a0,-138 # 80005e90 <swtch+0x3f4>
    80000f22:	00005097          	auipc	ra,0x5
    80000f26:	9b4080e7          	jalr	-1612(ra) # 800058d6 <printf>
            panic("map_range failed");
    80000f2a:	00005517          	auipc	a0,0x5
    80000f2e:	fa650513          	add	a0,a0,-90 # 80005ed0 <swtch+0x434>
    80000f32:	00005097          	auipc	ra,0x5
    80000f36:	a3c080e7          	jalr	-1476(ra) # 8000596e <panic>
    for (; va < va_end; va += PGSIZE, pa += PGSIZE) {
    80000f3a:	fe843703          	ld	a4,-24(s0)
    80000f3e:	6785                	lui	a5,0x1
    80000f40:	97ba                	add	a5,a5,a4
    80000f42:	fef43423          	sd	a5,-24(s0)
    80000f46:	fe043703          	ld	a4,-32(s0)
    80000f4a:	6785                	lui	a5,0x1
    80000f4c:	97ba                	add	a5,a5,a4
    80000f4e:	fef43023          	sd	a5,-32(s0)
    80000f52:	fe843703          	ld	a4,-24(s0)
    80000f56:	fb843783          	ld	a5,-72(s0)
    80000f5a:	f8f763e3          	bltu	a4,a5,80000ee0 <map_range+0x38>
        }
    }
}
    80000f5e:	0001                	nop
    80000f60:	0001                	nop
    80000f62:	60e6                	ld	ra,88(sp)
    80000f64:	6446                	ld	s0,80(sp)
    80000f66:	6125                	add	sp,sp,96
    80000f68:	8082                	ret

0000000080000f6a <destroy_pagetable>:

void destroy_pagetable(pagetable_t pagetable) {
    80000f6a:	1101                	add	sp,sp,-32
    80000f6c:	ec06                	sd	ra,24(sp)
    80000f6e:	e822                	sd	s0,16(sp)
    80000f70:	1000                	add	s0,sp,32
    80000f72:	fea43423          	sd	a0,-24(s0)
    freewalk(pagetable, 2);
    80000f76:	4589                	li	a1,2
    80000f78:	fe843503          	ld	a0,-24(s0)
    80000f7c:	00000097          	auipc	ra,0x0
    80000f80:	012080e7          	jalr	18(ra) # 80000f8e <freewalk>
}
    80000f84:	0001                	nop
    80000f86:	60e2                	ld	ra,24(sp)
    80000f88:	6442                	ld	s0,16(sp)
    80000f8a:	6105                	add	sp,sp,32
    80000f8c:	8082                	ret

0000000080000f8e <freewalk>:

static void freewalk(pagetable_t pagetable, int level) {
    80000f8e:	7139                	add	sp,sp,-64
    80000f90:	fc06                	sd	ra,56(sp)
    80000f92:	f822                	sd	s0,48(sp)
    80000f94:	0080                	add	s0,sp,64
    80000f96:	fca43423          	sd	a0,-56(s0)
    80000f9a:	87ae                	mv	a5,a1
    80000f9c:	fcf42223          	sw	a5,-60(s0)
    for (int i = 0; i < 512; i++) {
    80000fa0:	fe042623          	sw	zero,-20(s0)
    80000fa4:	a8a1                	j	80000ffc <freewalk+0x6e>
        pte_t pte = pagetable[i];
    80000fa6:	fec42783          	lw	a5,-20(s0)
    80000faa:	078e                	sll	a5,a5,0x3
    80000fac:	fc843703          	ld	a4,-56(s0)
    80000fb0:	97ba                	add	a5,a5,a4
    80000fb2:	639c                	ld	a5,0(a5)
    80000fb4:	fef43023          	sd	a5,-32(s0)
        if ((pte & PTE_V) == 0) continue;
    80000fb8:	fe043783          	ld	a5,-32(s0)
    80000fbc:	8b85                	and	a5,a5,1
    80000fbe:	c79d                	beqz	a5,80000fec <freewalk+0x5e>
        if ((pte & (PTE_R | PTE_W | PTE_X)) != 0) {
    80000fc0:	fe043783          	ld	a5,-32(s0)
    80000fc4:	8bb9                	and	a5,a5,14
    80000fc6:	e78d                	bnez	a5,80000ff0 <freewalk+0x62>
            continue; // leaf mapping, actual physical page lifetime handled elsewhere
        }
        pagetable_t child = (pagetable_t)PTE2PA(pte);
    80000fc8:	fe043783          	ld	a5,-32(s0)
    80000fcc:	83a9                	srl	a5,a5,0xa
    80000fce:	07b2                	sll	a5,a5,0xc
    80000fd0:	fcf43c23          	sd	a5,-40(s0)
        freewalk(child, level - 1);
    80000fd4:	fc442783          	lw	a5,-60(s0)
    80000fd8:	37fd                	addw	a5,a5,-1 # fff <_entry-0x7ffff001>
    80000fda:	2781                	sext.w	a5,a5
    80000fdc:	85be                	mv	a1,a5
    80000fde:	fd843503          	ld	a0,-40(s0)
    80000fe2:	00000097          	auipc	ra,0x0
    80000fe6:	fac080e7          	jalr	-84(ra) # 80000f8e <freewalk>
    80000fea:	a021                	j	80000ff2 <freewalk+0x64>
        if ((pte & PTE_V) == 0) continue;
    80000fec:	0001                	nop
    80000fee:	a011                	j	80000ff2 <freewalk+0x64>
            continue; // leaf mapping, actual physical page lifetime handled elsewhere
    80000ff0:	0001                	nop
    for (int i = 0; i < 512; i++) {
    80000ff2:	fec42783          	lw	a5,-20(s0)
    80000ff6:	2785                	addw	a5,a5,1
    80000ff8:	fef42623          	sw	a5,-20(s0)
    80000ffc:	fec42783          	lw	a5,-20(s0)
    80001000:	0007871b          	sext.w	a4,a5
    80001004:	1ff00793          	li	a5,511
    80001008:	f8e7dfe3          	bge	a5,a4,80000fa6 <freewalk+0x18>
    }
    free_page(pagetable);
    8000100c:	fc843503          	ld	a0,-56(s0)
    80001010:	fffff097          	auipc	ra,0xfffff
    80001014:	666080e7          	jalr	1638(ra) # 80000676 <free_page>
}
    80001018:	0001                	nop
    8000101a:	70e2                	ld	ra,56(sp)
    8000101c:	7442                	ld	s0,48(sp)
    8000101e:	6121                	add	sp,sp,64
    80001020:	8082                	ret

0000000080001022 <dumpwalk>:

static void dumpwalk(pagetable_t pagetable, int level, int indent, int* remaining) {
    80001022:	715d                	add	sp,sp,-80
    80001024:	e486                	sd	ra,72(sp)
    80001026:	e0a2                	sd	s0,64(sp)
    80001028:	0880                	add	s0,sp,80
    8000102a:	fca43423          	sd	a0,-56(s0)
    8000102e:	87ae                	mv	a5,a1
    80001030:	8732                	mv	a4,a2
    80001032:	fad43c23          	sd	a3,-72(s0)
    80001036:	fcf42223          	sw	a5,-60(s0)
    8000103a:	87ba                	mv	a5,a4
    8000103c:	fcf42023          	sw	a5,-64(s0)
    for (int i = 0; i < 512; i++) {
    80001040:	fe042623          	sw	zero,-20(s0)
    80001044:	a0d5                	j	80001128 <dumpwalk+0x106>
        pte_t pte = pagetable[i];
    80001046:	fec42783          	lw	a5,-20(s0)
    8000104a:	078e                	sll	a5,a5,0x3
    8000104c:	fc843703          	ld	a4,-56(s0)
    80001050:	97ba                	add	a5,a5,a4
    80001052:	639c                	ld	a5,0(a5)
    80001054:	fef43023          	sd	a5,-32(s0)
        if ((pte & PTE_V) == 0) continue;
    80001058:	fe043783          	ld	a5,-32(s0)
    8000105c:	8b85                	and	a5,a5,1
    8000105e:	cfdd                	beqz	a5,8000111c <dumpwalk+0xfa>
        if (*remaining <= 0) return;
    80001060:	fb843783          	ld	a5,-72(s0)
    80001064:	439c                	lw	a5,0(a5)
    80001066:	0cf05a63          	blez	a5,8000113a <dumpwalk+0x118>
        (*remaining)--;
    8000106a:	fb843783          	ld	a5,-72(s0)
    8000106e:	439c                	lw	a5,0(a5)
    80001070:	37fd                	addw	a5,a5,-1
    80001072:	0007871b          	sext.w	a4,a5
    80001076:	fb843783          	ld	a5,-72(s0)
    8000107a:	c398                	sw	a4,0(a5)
        for (int j = 0; j < indent; j++) printf(" ");
    8000107c:	fe042423          	sw	zero,-24(s0)
    80001080:	a831                	j	8000109c <dumpwalk+0x7a>
    80001082:	00005517          	auipc	a0,0x5
    80001086:	e6650513          	add	a0,a0,-410 # 80005ee8 <swtch+0x44c>
    8000108a:	00005097          	auipc	ra,0x5
    8000108e:	84c080e7          	jalr	-1972(ra) # 800058d6 <printf>
    80001092:	fe842783          	lw	a5,-24(s0)
    80001096:	2785                	addw	a5,a5,1
    80001098:	fef42423          	sw	a5,-24(s0)
    8000109c:	fe842783          	lw	a5,-24(s0)
    800010a0:	873e                	mv	a4,a5
    800010a2:	fc042783          	lw	a5,-64(s0)
    800010a6:	2701                	sext.w	a4,a4
    800010a8:	2781                	sext.w	a5,a5
    800010aa:	fcf74ce3          	blt	a4,a5,80001082 <dumpwalk+0x60>
        uint64 pa = PTE2PA(pte);
    800010ae:	fe043783          	ld	a5,-32(s0)
    800010b2:	83a9                	srl	a5,a5,0xa
    800010b4:	07b2                	sll	a5,a5,0xc
    800010b6:	fcf43c23          	sd	a5,-40(s0)
        printf("L%d[%d]: PTE=0x%lx -> PA=0x%lx flags=0x%lx\n",
    800010ba:	fe043783          	ld	a5,-32(s0)
    800010be:	3ff7f793          	and	a5,a5,1023
    800010c2:	fec42603          	lw	a2,-20(s0)
    800010c6:	fc442583          	lw	a1,-60(s0)
    800010ca:	fd843703          	ld	a4,-40(s0)
    800010ce:	fe043683          	ld	a3,-32(s0)
    800010d2:	00005517          	auipc	a0,0x5
    800010d6:	e1e50513          	add	a0,a0,-482 # 80005ef0 <swtch+0x454>
    800010da:	00004097          	auipc	ra,0x4
    800010de:	7fc080e7          	jalr	2044(ra) # 800058d6 <printf>
               level, i, pte, pa, PTE_FLAGS(pte));
        if ((pte & (PTE_R | PTE_W | PTE_X)) == 0 && level > 0) {
    800010e2:	fe043783          	ld	a5,-32(s0)
    800010e6:	8bb9                	and	a5,a5,14
    800010e8:	eb9d                	bnez	a5,8000111e <dumpwalk+0xfc>
    800010ea:	fc442783          	lw	a5,-60(s0)
    800010ee:	2781                	sext.w	a5,a5
    800010f0:	02f05763          	blez	a5,8000111e <dumpwalk+0xfc>
            dumpwalk((pagetable_t)pa, level - 1, indent + 2, remaining);
    800010f4:	fd843783          	ld	a5,-40(s0)
    800010f8:	fc442703          	lw	a4,-60(s0)
    800010fc:	377d                	addw	a4,a4,-1
    800010fe:	2701                	sext.w	a4,a4
    80001100:	fc042683          	lw	a3,-64(s0)
    80001104:	2689                	addw	a3,a3,2
    80001106:	0006861b          	sext.w	a2,a3
    8000110a:	fb843683          	ld	a3,-72(s0)
    8000110e:	85ba                	mv	a1,a4
    80001110:	853e                	mv	a0,a5
    80001112:	00000097          	auipc	ra,0x0
    80001116:	f10080e7          	jalr	-240(ra) # 80001022 <dumpwalk>
    8000111a:	a011                	j	8000111e <dumpwalk+0xfc>
        if ((pte & PTE_V) == 0) continue;
    8000111c:	0001                	nop
    for (int i = 0; i < 512; i++) {
    8000111e:	fec42783          	lw	a5,-20(s0)
    80001122:	2785                	addw	a5,a5,1
    80001124:	fef42623          	sw	a5,-20(s0)
    80001128:	fec42783          	lw	a5,-20(s0)
    8000112c:	0007871b          	sext.w	a4,a5
    80001130:	1ff00793          	li	a5,511
    80001134:	f0e7d9e3          	bge	a5,a4,80001046 <dumpwalk+0x24>
    80001138:	a011                	j	8000113c <dumpwalk+0x11a>
        if (*remaining <= 0) return;
    8000113a:	0001                	nop
        }
    }
}
    8000113c:	60a6                	ld	ra,72(sp)
    8000113e:	6406                	ld	s0,64(sp)
    80001140:	6161                	add	sp,sp,80
    80001142:	8082                	ret

0000000080001144 <dump_pagetable>:

void dump_pagetable(pagetable_t pagetable) {
    80001144:	7179                	add	sp,sp,-48
    80001146:	f406                	sd	ra,40(sp)
    80001148:	f022                	sd	s0,32(sp)
    8000114a:	1800                	add	s0,sp,48
    8000114c:	fca43c23          	sd	a0,-40(s0)
    printf("[vmem] dump pagetable @0x%lx\n", (uint64)pagetable);
    80001150:	fd843783          	ld	a5,-40(s0)
    80001154:	85be                	mv	a1,a5
    80001156:	00005517          	auipc	a0,0x5
    8000115a:	dca50513          	add	a0,a0,-566 # 80005f20 <swtch+0x484>
    8000115e:	00004097          	auipc	ra,0x4
    80001162:	778080e7          	jalr	1912(ra) # 800058d6 <printf>
    int remaining = 200; // keep output bounded to avoid flooding console
    80001166:	0c800793          	li	a5,200
    8000116a:	fef42623          	sw	a5,-20(s0)
    dumpwalk(pagetable, 2, 0, &remaining);
    8000116e:	fec40793          	add	a5,s0,-20
    80001172:	86be                	mv	a3,a5
    80001174:	4601                	li	a2,0
    80001176:	4589                	li	a1,2
    80001178:	fd843503          	ld	a0,-40(s0)
    8000117c:	00000097          	auipc	ra,0x0
    80001180:	ea6080e7          	jalr	-346(ra) # 80001022 <dumpwalk>
    if (remaining == 0) {
    80001184:	fec42783          	lw	a5,-20(s0)
    80001188:	eb89                	bnez	a5,8000119a <dump_pagetable+0x56>
        printf("[vmem] dump truncated after 200 entries\n");
    8000118a:	00005517          	auipc	a0,0x5
    8000118e:	db650513          	add	a0,a0,-586 # 80005f40 <swtch+0x4a4>
    80001192:	00004097          	auipc	ra,0x4
    80001196:	744080e7          	jalr	1860(ra) # 800058d6 <printf>
    }
}
    8000119a:	0001                	nop
    8000119c:	70a2                	ld	ra,40(sp)
    8000119e:	7402                	ld	s0,32(sp)
    800011a0:	6145                	add	sp,sp,48
    800011a2:	8082                	ret

00000000800011a4 <vmem_setup_kernel>:

pagetable_t vmem_setup_kernel(void) {
    800011a4:	1141                	add	sp,sp,-16
    800011a6:	e406                	sd	ra,8(sp)
    800011a8:	e022                	sd	s0,0(sp)
    800011aa:	0800                	add	s0,sp,16
    if (kernel_pagetable) {
    800011ac:	00006797          	auipc	a5,0x6
    800011b0:	d4478793          	add	a5,a5,-700 # 80006ef0 <kernel_pagetable>
    800011b4:	639c                	ld	a5,0(a5)
    800011b6:	c799                	beqz	a5,800011c4 <vmem_setup_kernel+0x20>
        return kernel_pagetable;
    800011b8:	00006797          	auipc	a5,0x6
    800011bc:	d3878793          	add	a5,a5,-712 # 80006ef0 <kernel_pagetable>
    800011c0:	639c                	ld	a5,0(a5)
    800011c2:	a881                	j	80001212 <vmem_setup_kernel+0x6e>
    }
    kernel_pagetable = create_pagetable();
    800011c4:	00000097          	auipc	ra,0x0
    800011c8:	ab2080e7          	jalr	-1358(ra) # 80000c76 <create_pagetable>
    800011cc:	872a                	mv	a4,a0
    800011ce:	00006797          	auipc	a5,0x6
    800011d2:	d2278793          	add	a5,a5,-734 # 80006ef0 <kernel_pagetable>
    800011d6:	e398                	sd	a4,0(a5)
    if (!kernel_pagetable) panic("vmem_setup_kernel: alloc root");
    800011d8:	00006797          	auipc	a5,0x6
    800011dc:	d1878793          	add	a5,a5,-744 # 80006ef0 <kernel_pagetable>
    800011e0:	639c                	ld	a5,0(a5)
    800011e2:	eb89                	bnez	a5,800011f4 <vmem_setup_kernel+0x50>
    800011e4:	00005517          	auipc	a0,0x5
    800011e8:	d8c50513          	add	a0,a0,-628 # 80005f70 <swtch+0x4d4>
    800011ec:	00004097          	auipc	ra,0x4
    800011f0:	782080e7          	jalr	1922(ra) # 8000596e <panic>
    vmem_map_kernel_segments(kernel_pagetable);
    800011f4:	00006797          	auipc	a5,0x6
    800011f8:	cfc78793          	add	a5,a5,-772 # 80006ef0 <kernel_pagetable>
    800011fc:	639c                	ld	a5,0(a5)
    800011fe:	853e                	mv	a0,a5
    80001200:	00000097          	auipc	ra,0x0
    80001204:	034080e7          	jalr	52(ra) # 80001234 <vmem_map_kernel_segments>
    return kernel_pagetable;
    80001208:	00006797          	auipc	a5,0x6
    8000120c:	ce878793          	add	a5,a5,-792 # 80006ef0 <kernel_pagetable>
    80001210:	639c                	ld	a5,0(a5)
}
    80001212:	853e                	mv	a0,a5
    80001214:	60a2                	ld	ra,8(sp)
    80001216:	6402                	ld	s0,0(sp)
    80001218:	0141                	add	sp,sp,16
    8000121a:	8082                	ret

000000008000121c <vmem_kernel_pagetable>:

pagetable_t vmem_kernel_pagetable(void) {
    8000121c:	1141                	add	sp,sp,-16
    8000121e:	e422                	sd	s0,8(sp)
    80001220:	0800                	add	s0,sp,16
    return kernel_pagetable;
    80001222:	00006797          	auipc	a5,0x6
    80001226:	cce78793          	add	a5,a5,-818 # 80006ef0 <kernel_pagetable>
    8000122a:	639c                	ld	a5,0(a5)
}
    8000122c:	853e                	mv	a0,a5
    8000122e:	6422                	ld	s0,8(sp)
    80001230:	0141                	add	sp,sp,16
    80001232:	8082                	ret

0000000080001234 <vmem_map_kernel_segments>:

void vmem_map_kernel_segments(pagetable_t kpgtbl) {
    80001234:	7159                	add	sp,sp,-112
    80001236:	f486                	sd	ra,104(sp)
    80001238:	f0a2                	sd	s0,96(sp)
    8000123a:	1880                	add	s0,sp,112
    8000123c:	f8a43c23          	sd	a0,-104(s0)
    uint64 text_start = (uint64)_text_start;
    80001240:	fffff797          	auipc	a5,0xfffff
    80001244:	dc078793          	add	a5,a5,-576 # 80000000 <_entry>
    80001248:	fef43423          	sd	a5,-24(s0)
    uint64 data_start_addr = (uint64)_data_start;
    8000124c:	00006797          	auipc	a5,0x6
    80001250:	b3478793          	add	a5,a5,-1228 # 80006d80 <syscall_names>
    80001254:	fef43023          	sd	a5,-32(s0)
    uint64 bss_end    = (uint64)_bss_end;
    80001258:	0000c797          	auipc	a5,0xc
    8000125c:	de878793          	add	a5,a5,-536 # 8000d040 <_bss_end>
    80001260:	fcf43c23          	sd	a5,-40(s0)
    uint64 stack_bottom = (uint64)_stack_bottom;
    80001264:	0000d797          	auipc	a5,0xd
    80001268:	d9c78793          	add	a5,a5,-612 # 8000e000 <_stack_bottom>
    8000126c:	fcf43823          	sd	a5,-48(s0)
    uint64 stack_top    = (uint64)_stack_top;
    80001270:	0000e797          	auipc	a5,0xe
    80001274:	d9078793          	add	a5,a5,-624 # 8000f000 <_stack_top>
    80001278:	fcf43423          	sd	a5,-56(s0)

    uint64 text_only_end = PGROUNDDOWN(data_start_addr);
    8000127c:	fe043703          	ld	a4,-32(s0)
    80001280:	77fd                	lui	a5,0xfffff
    80001282:	8ff9                	and	a5,a5,a4
    80001284:	fcf43023          	sd	a5,-64(s0)
    if (text_only_end > text_start) {
    80001288:	fc043703          	ld	a4,-64(s0)
    8000128c:	fe843783          	ld	a5,-24(s0)
    80001290:	00e7ff63          	bgeu	a5,a4,800012ae <vmem_map_kernel_segments+0x7a>
        map_range(kpgtbl, text_start, text_only_end, text_start, PTE_R | PTE_X);
    80001294:	4729                	li	a4,10
    80001296:	fe843683          	ld	a3,-24(s0)
    8000129a:	fc043603          	ld	a2,-64(s0)
    8000129e:	fe843583          	ld	a1,-24(s0)
    800012a2:	f9843503          	ld	a0,-104(s0)
    800012a6:	00000097          	auipc	ra,0x0
    800012aa:	c02080e7          	jalr	-1022(ra) # 80000ea8 <map_range>
    }

    // The page containing the start of .data may also contain tail of .text/.rodata.
    uint64 overlap_page = PGROUNDDOWN(data_start_addr);
    800012ae:	fe043703          	ld	a4,-32(s0)
    800012b2:	77fd                	lui	a5,0xfffff
    800012b4:	8ff9                	and	a5,a5,a4
    800012b6:	faf43c23          	sd	a5,-72(s0)
    map_range(kpgtbl, overlap_page, overlap_page + PGSIZE, overlap_page, PTE_R | PTE_W | PTE_X);
    800012ba:	fb843703          	ld	a4,-72(s0)
    800012be:	6785                	lui	a5,0x1
    800012c0:	97ba                	add	a5,a5,a4
    800012c2:	4739                	li	a4,14
    800012c4:	fb843683          	ld	a3,-72(s0)
    800012c8:	863e                	mv	a2,a5
    800012ca:	fb843583          	ld	a1,-72(s0)
    800012ce:	f9843503          	ld	a0,-104(s0)
    800012d2:	00000097          	auipc	ra,0x0
    800012d6:	bd6080e7          	jalr	-1066(ra) # 80000ea8 <map_range>

    uint64 data_rest_start = overlap_page + PGSIZE;
    800012da:	fb843703          	ld	a4,-72(s0)
    800012de:	6785                	lui	a5,0x1
    800012e0:	97ba                	add	a5,a5,a4
    800012e2:	faf43823          	sd	a5,-80(s0)
    uint64 data_end   = PGROUNDUP(bss_end);
    800012e6:	fd843703          	ld	a4,-40(s0)
    800012ea:	6785                	lui	a5,0x1
    800012ec:	17fd                	add	a5,a5,-1 # fff <_entry-0x7ffff001>
    800012ee:	973e                	add	a4,a4,a5
    800012f0:	77fd                	lui	a5,0xfffff
    800012f2:	8ff9                	and	a5,a5,a4
    800012f4:	faf43423          	sd	a5,-88(s0)
    if (data_end > data_rest_start) {
    800012f8:	fa843703          	ld	a4,-88(s0)
    800012fc:	fb043783          	ld	a5,-80(s0)
    80001300:	00e7ff63          	bgeu	a5,a4,8000131e <vmem_map_kernel_segments+0xea>
        map_range(kpgtbl, data_rest_start, data_end, data_rest_start, PTE_R | PTE_W);
    80001304:	4719                	li	a4,6
    80001306:	fb043683          	ld	a3,-80(s0)
    8000130a:	fa843603          	ld	a2,-88(s0)
    8000130e:	fb043583          	ld	a1,-80(s0)
    80001312:	f9843503          	ld	a0,-104(s0)
    80001316:	00000097          	auipc	ra,0x0
    8000131a:	b92080e7          	jalr	-1134(ra) # 80000ea8 <map_range>
    }
    map_range(kpgtbl, stack_bottom, stack_top, stack_bottom, PTE_R | PTE_W);
    8000131e:	4719                	li	a4,6
    80001320:	fd043683          	ld	a3,-48(s0)
    80001324:	fc843603          	ld	a2,-56(s0)
    80001328:	fd043583          	ld	a1,-48(s0)
    8000132c:	f9843503          	ld	a0,-104(s0)
    80001330:	00000097          	auipc	ra,0x0
    80001334:	b78080e7          	jalr	-1160(ra) # 80000ea8 <map_range>

    // Map remaining physical memory for allocator use
    uint64 free_start = PGROUNDUP(pmem_usable_start());
    80001338:	fffff097          	auipc	ra,0xfffff
    8000133c:	7c0080e7          	jalr	1984(ra) # 80000af8 <pmem_usable_start>
    80001340:	872a                	mv	a4,a0
    80001342:	6785                	lui	a5,0x1
    80001344:	17fd                	add	a5,a5,-1 # fff <_entry-0x7ffff001>
    80001346:	973e                	add	a4,a4,a5
    80001348:	77fd                	lui	a5,0xfffff
    8000134a:	8ff9                	and	a5,a5,a4
    8000134c:	faf43023          	sd	a5,-96(s0)
    map_range(kpgtbl, free_start, RAM_END, free_start, PTE_R | PTE_W);
    80001350:	4719                	li	a4,6
    80001352:	fa043683          	ld	a3,-96(s0)
    80001356:	47c5                	li	a5,17
    80001358:	01b79613          	sll	a2,a5,0x1b
    8000135c:	fa043583          	ld	a1,-96(s0)
    80001360:	f9843503          	ld	a0,-104(s0)
    80001364:	00000097          	auipc	ra,0x0
    80001368:	b44080e7          	jalr	-1212(ra) # 80000ea8 <map_range>

    // Map UART device
    map_range(kpgtbl, 0x10000000UL, 0x10000000UL + PGSIZE, 0x10000000UL, PTE_R | PTE_W);
    8000136c:	4719                	li	a4,6
    8000136e:	100006b7          	lui	a3,0x10000
    80001372:	10001637          	lui	a2,0x10001
    80001376:	100005b7          	lui	a1,0x10000
    8000137a:	f9843503          	ld	a0,-104(s0)
    8000137e:	00000097          	auipc	ra,0x0
    80001382:	b2a080e7          	jalr	-1238(ra) # 80000ea8 <map_range>
}
    80001386:	0001                	nop
    80001388:	70a6                	ld	ra,104(sp)
    8000138a:	7406                	ld	s0,96(sp)
    8000138c:	6165                	add	sp,sp,112
    8000138e:	8082                	ret

0000000080001390 <vmem_enable>:

void vmem_enable(pagetable_t kpgtbl) {
    80001390:	7179                	add	sp,sp,-48
    80001392:	f406                	sd	ra,40(sp)
    80001394:	f022                	sd	s0,32(sp)
    80001396:	1800                	add	s0,sp,48
    80001398:	fca43c23          	sd	a0,-40(s0)
    uint64 satp = MAKE_SATP(kpgtbl);
    8000139c:	fd843783          	ld	a5,-40(s0)
    800013a0:	00c7d713          	srl	a4,a5,0xc
    800013a4:	57fd                	li	a5,-1
    800013a6:	17fe                	sll	a5,a5,0x3f
    800013a8:	8fd9                	or	a5,a5,a4
    800013aa:	fef43423          	sd	a5,-24(s0)
    w_satp(satp);
    800013ae:	fe843503          	ld	a0,-24(s0)
    800013b2:	00000097          	auipc	ra,0x0
    800013b6:	898080e7          	jalr	-1896(ra) # 80000c4a <w_satp>
    sfence_vma();
    800013ba:	00000097          	auipc	ra,0x0
    800013be:	8aa080e7          	jalr	-1878(ra) # 80000c64 <sfence_vma>
}
    800013c2:	0001                	nop
    800013c4:	70a2                	ld	ra,40(sp)
    800013c6:	7402                	ld	s0,32(sp)
    800013c8:	6145                	add	sp,sp,48
    800013ca:	8082                	ret

00000000800013cc <vmem_translate>:

uint64 vmem_translate(pagetable_t pagetable, uint64 va) {
    800013cc:	7179                	add	sp,sp,-48
    800013ce:	f406                	sd	ra,40(sp)
    800013d0:	f022                	sd	s0,32(sp)
    800013d2:	1800                	add	s0,sp,48
    800013d4:	fca43c23          	sd	a0,-40(s0)
    800013d8:	fcb43823          	sd	a1,-48(s0)
    pte_t* pte = walk_lookup(pagetable, va);
    800013dc:	fd043583          	ld	a1,-48(s0)
    800013e0:	fd843503          	ld	a0,-40(s0)
    800013e4:	00000097          	auipc	ra,0x0
    800013e8:	99e080e7          	jalr	-1634(ra) # 80000d82 <walk_lookup>
    800013ec:	fea43423          	sd	a0,-24(s0)
    if (!pte || (*pte & PTE_V) == 0) return 0;
    800013f0:	fe843783          	ld	a5,-24(s0)
    800013f4:	c791                	beqz	a5,80001400 <vmem_translate+0x34>
    800013f6:	fe843783          	ld	a5,-24(s0)
    800013fa:	639c                	ld	a5,0(a5)
    800013fc:	8b85                	and	a5,a5,1
    800013fe:	e399                	bnez	a5,80001404 <vmem_translate+0x38>
    80001400:	4781                	li	a5,0
    80001402:	a005                	j	80001422 <vmem_translate+0x56>
    uint64 pa = PTE2PA(*pte);
    80001404:	fe843783          	ld	a5,-24(s0)
    80001408:	639c                	ld	a5,0(a5)
    8000140a:	83a9                	srl	a5,a5,0xa
    8000140c:	07b2                	sll	a5,a5,0xc
    8000140e:	fef43023          	sd	a5,-32(s0)
    return pa | (va & (PGSIZE - 1));
    80001412:	fd043703          	ld	a4,-48(s0)
    80001416:	6785                	lui	a5,0x1
    80001418:	17fd                	add	a5,a5,-1 # fff <_entry-0x7ffff001>
    8000141a:	8f7d                	and	a4,a4,a5
    8000141c:	fe043783          	ld	a5,-32(s0)
    80001420:	8fd9                	or	a5,a5,a4
}
    80001422:	853e                	mv	a0,a5
    80001424:	70a2                	ld	ra,40(sp)
    80001426:	7402                	ld	s0,32(sp)
    80001428:	6145                	add	sp,sp,48
    8000142a:	8082                	ret

000000008000142c <vmem_selftest>:

void vmem_selftest(void) {
    8000142c:	7139                	add	sp,sp,-64
    8000142e:	fc06                	sd	ra,56(sp)
    80001430:	f822                	sd	s0,48(sp)
    80001432:	0080                	add	s0,sp,64
    printf("[vmem] selftest start\n");
    80001434:	00005517          	auipc	a0,0x5
    80001438:	b5c50513          	add	a0,a0,-1188 # 80005f90 <swtch+0x4f4>
    8000143c:	00004097          	auipc	ra,0x4
    80001440:	49a080e7          	jalr	1178(ra) # 800058d6 <printf>
    pagetable_t pt = create_pagetable();
    80001444:	00000097          	auipc	ra,0x0
    80001448:	832080e7          	jalr	-1998(ra) # 80000c76 <create_pagetable>
    8000144c:	fea43423          	sd	a0,-24(s0)
    if (!pt) panic("vmem selftest: pagetable alloc");
    80001450:	fe843783          	ld	a5,-24(s0)
    80001454:	eb89                	bnez	a5,80001466 <vmem_selftest+0x3a>
    80001456:	00005517          	auipc	a0,0x5
    8000145a:	b5250513          	add	a0,a0,-1198 # 80005fa8 <swtch+0x50c>
    8000145e:	00004097          	auipc	ra,0x4
    80001462:	510080e7          	jalr	1296(ra) # 8000596e <panic>
    void* page = alloc_page();
    80001466:	fffff097          	auipc	ra,0xfffff
    8000146a:	294080e7          	jalr	660(ra) # 800006fa <alloc_page>
    8000146e:	fea43023          	sd	a0,-32(s0)
    if (!page) panic("vmem selftest: page alloc");
    80001472:	fe043783          	ld	a5,-32(s0)
    80001476:	eb89                	bnez	a5,80001488 <vmem_selftest+0x5c>
    80001478:	00005517          	auipc	a0,0x5
    8000147c:	b5050513          	add	a0,a0,-1200 # 80005fc8 <swtch+0x52c>
    80001480:	00004097          	auipc	ra,0x4
    80001484:	4ee080e7          	jalr	1262(ra) # 8000596e <panic>
    uint64 va = 0x40000000UL;
    80001488:	400007b7          	lui	a5,0x40000
    8000148c:	fcf43c23          	sd	a5,-40(s0)
    int r = map_page(pt, va, (uint64)page, PTE_R | PTE_W);
    80001490:	fe043783          	ld	a5,-32(s0)
    80001494:	4699                	li	a3,6
    80001496:	863e                	mv	a2,a5
    80001498:	fd843583          	ld	a1,-40(s0)
    8000149c:	fe843503          	ld	a0,-24(s0)
    800014a0:	00000097          	auipc	ra,0x0
    800014a4:	980080e7          	jalr	-1664(ra) # 80000e20 <map_page>
    800014a8:	87aa                	mv	a5,a0
    800014aa:	fcf42a23          	sw	a5,-44(s0)
    if (r != 0) panic("vmem selftest: map_page");
    800014ae:	fd442783          	lw	a5,-44(s0)
    800014b2:	2781                	sext.w	a5,a5
    800014b4:	cb89                	beqz	a5,800014c6 <vmem_selftest+0x9a>
    800014b6:	00005517          	auipc	a0,0x5
    800014ba:	b3250513          	add	a0,a0,-1230 # 80005fe8 <swtch+0x54c>
    800014be:	00004097          	auipc	ra,0x4
    800014c2:	4b0080e7          	jalr	1200(ra) # 8000596e <panic>
    uint64 pa = vmem_translate(pt, va);
    800014c6:	fd843583          	ld	a1,-40(s0)
    800014ca:	fe843503          	ld	a0,-24(s0)
    800014ce:	00000097          	auipc	ra,0x0
    800014d2:	efe080e7          	jalr	-258(ra) # 800013cc <vmem_translate>
    800014d6:	fca43423          	sd	a0,-56(s0)
    if (pa != (uint64)page) panic("vmem selftest: translate mismatch");
    800014da:	fe043783          	ld	a5,-32(s0)
    800014de:	fc843703          	ld	a4,-56(s0)
    800014e2:	00f70a63          	beq	a4,a5,800014f6 <vmem_selftest+0xca>
    800014e6:	00005517          	auipc	a0,0x5
    800014ea:	b1a50513          	add	a0,a0,-1254 # 80006000 <swtch+0x564>
    800014ee:	00004097          	auipc	ra,0x4
    800014f2:	480080e7          	jalr	1152(ra) # 8000596e <panic>
    destroy_pagetable(pt);
    800014f6:	fe843503          	ld	a0,-24(s0)
    800014fa:	00000097          	auipc	ra,0x0
    800014fe:	a70080e7          	jalr	-1424(ra) # 80000f6a <destroy_pagetable>
    free_page(page);
    80001502:	fe043503          	ld	a0,-32(s0)
    80001506:	fffff097          	auipc	ra,0xfffff
    8000150a:	170080e7          	jalr	368(ra) # 80000676 <free_page>
    printf("[vmem] selftest passed\n");
    8000150e:	00005517          	auipc	a0,0x5
    80001512:	b1a50513          	add	a0,a0,-1254 # 80006028 <swtch+0x58c>
    80001516:	00004097          	auipc	ra,0x4
    8000151a:	3c0080e7          	jalr	960(ra) # 800058d6 <printf>
}
    8000151e:	0001                	nop
    80001520:	70e2                	ld	ra,56(sp)
    80001522:	7442                	ld	s0,48(sp)
    80001524:	6121                	add	sp,sp,64
    80001526:	8082                	ret

0000000080001528 <vm_mappages>:

// -------- Compatibility wrappers for user-style tests --------
int vm_mappages(pagetable_t pt, uint64 va, uint64 pa, uint64 sz, int perm) {
    80001528:	711d                	add	sp,sp,-96
    8000152a:	ec86                	sd	ra,88(sp)
    8000152c:	e8a2                	sd	s0,80(sp)
    8000152e:	1080                	add	s0,sp,96
    80001530:	fca43423          	sd	a0,-56(s0)
    80001534:	fcb43023          	sd	a1,-64(s0)
    80001538:	fac43c23          	sd	a2,-72(s0)
    8000153c:	fad43823          	sd	a3,-80(s0)
    80001540:	87ba                	mv	a5,a4
    80001542:	faf42623          	sw	a5,-84(s0)
    uint64 a = PGROUNDDOWN(va);
    80001546:	fc043703          	ld	a4,-64(s0)
    8000154a:	77fd                	lui	a5,0xfffff
    8000154c:	8ff9                	and	a5,a5,a4
    8000154e:	fef43423          	sd	a5,-24(s0)
    uint64 last = PGROUNDUP(va + sz);
    80001552:	fc043703          	ld	a4,-64(s0)
    80001556:	fb043783          	ld	a5,-80(s0)
    8000155a:	973e                	add	a4,a4,a5
    8000155c:	6785                	lui	a5,0x1
    8000155e:	17fd                	add	a5,a5,-1 # fff <_entry-0x7ffff001>
    80001560:	973e                	add	a4,a4,a5
    80001562:	77fd                	lui	a5,0xfffff
    80001564:	8ff9                	and	a5,a5,a4
    80001566:	fef43023          	sd	a5,-32(s0)
    for (; a < last; a += PGSIZE, pa += PGSIZE) {
    8000156a:	a8a5                	j	800015e2 <vm_mappages+0xba>
        pte_t* pte = walk_create(pt, a);
    8000156c:	fe843583          	ld	a1,-24(s0)
    80001570:	fc843503          	ld	a0,-56(s0)
    80001574:	fffff097          	auipc	ra,0xfffff
    80001578:	73e080e7          	jalr	1854(ra) # 80000cb2 <walk_create>
    8000157c:	fca43c23          	sd	a0,-40(s0)
        if (!pte) return -1;
    80001580:	fd843783          	ld	a5,-40(s0)
    80001584:	e399                	bnez	a5,8000158a <vm_mappages+0x62>
    80001586:	57fd                	li	a5,-1
    80001588:	a0a5                	j	800015f0 <vm_mappages+0xc8>
        if (*pte & PTE_V) {
    8000158a:	fd843783          	ld	a5,-40(s0)
    8000158e:	639c                	ld	a5,0(a5)
    80001590:	8b85                	and	a5,a5,1
    80001592:	cf99                	beqz	a5,800015b0 <vm_mappages+0x88>
            // allow remap to same pa with new perms
            *pte = PA2PTE(pa) | perm | PTE_V;
    80001594:	fb843783          	ld	a5,-72(s0)
    80001598:	83b1                	srl	a5,a5,0xc
    8000159a:	00a79713          	sll	a4,a5,0xa
    8000159e:	fac42783          	lw	a5,-84(s0)
    800015a2:	8fd9                	or	a5,a5,a4
    800015a4:	0017e713          	or	a4,a5,1
    800015a8:	fd843783          	ld	a5,-40(s0)
    800015ac:	e398                	sd	a4,0(a5)
    800015ae:	a831                	j	800015ca <vm_mappages+0xa2>
        } else {
            *pte = PA2PTE(pa) | perm | PTE_V;
    800015b0:	fb843783          	ld	a5,-72(s0)
    800015b4:	83b1                	srl	a5,a5,0xc
    800015b6:	00a79713          	sll	a4,a5,0xa
    800015ba:	fac42783          	lw	a5,-84(s0)
    800015be:	8fd9                	or	a5,a5,a4
    800015c0:	0017e713          	or	a4,a5,1
    800015c4:	fd843783          	ld	a5,-40(s0)
    800015c8:	e398                	sd	a4,0(a5)
    for (; a < last; a += PGSIZE, pa += PGSIZE) {
    800015ca:	fe843703          	ld	a4,-24(s0)
    800015ce:	6785                	lui	a5,0x1
    800015d0:	97ba                	add	a5,a5,a4
    800015d2:	fef43423          	sd	a5,-24(s0)
    800015d6:	fb843703          	ld	a4,-72(s0)
    800015da:	6785                	lui	a5,0x1
    800015dc:	97ba                	add	a5,a5,a4
    800015de:	faf43c23          	sd	a5,-72(s0)
    800015e2:	fe843703          	ld	a4,-24(s0)
    800015e6:	fe043783          	ld	a5,-32(s0)
    800015ea:	f8f761e3          	bltu	a4,a5,8000156c <vm_mappages+0x44>
        }
    }
    return 0;
    800015ee:	4781                	li	a5,0
}
    800015f0:	853e                	mv	a0,a5
    800015f2:	60e6                	ld	ra,88(sp)
    800015f4:	6446                	ld	s0,80(sp)
    800015f6:	6125                	add	sp,sp,96
    800015f8:	8082                	ret

00000000800015fa <vm_unmappages>:

int vm_unmappages(pagetable_t pt, uint64 va, uint64 sz, int do_free) {
    800015fa:	715d                	add	sp,sp,-80
    800015fc:	e486                	sd	ra,72(sp)
    800015fe:	e0a2                	sd	s0,64(sp)
    80001600:	0880                	add	s0,sp,80
    80001602:	fca43423          	sd	a0,-56(s0)
    80001606:	fcb43023          	sd	a1,-64(s0)
    8000160a:	fac43c23          	sd	a2,-72(s0)
    8000160e:	87b6                	mv	a5,a3
    80001610:	faf42a23          	sw	a5,-76(s0)
    uint64 a = PGROUNDDOWN(va);
    80001614:	fc043703          	ld	a4,-64(s0)
    80001618:	77fd                	lui	a5,0xfffff
    8000161a:	8ff9                	and	a5,a5,a4
    8000161c:	fef43423          	sd	a5,-24(s0)
    uint64 last = PGROUNDUP(va + sz);
    80001620:	fc043703          	ld	a4,-64(s0)
    80001624:	fb843783          	ld	a5,-72(s0)
    80001628:	973e                	add	a4,a4,a5
    8000162a:	6785                	lui	a5,0x1
    8000162c:	17fd                	add	a5,a5,-1 # fff <_entry-0x7ffff001>
    8000162e:	973e                	add	a4,a4,a5
    80001630:	77fd                	lui	a5,0xfffff
    80001632:	8ff9                	and	a5,a5,a4
    80001634:	fef43023          	sd	a5,-32(s0)
    for (; a < last; a += PGSIZE) {
    80001638:	a08d                	j	8000169a <vm_unmappages+0xa0>
        pte_t* pte = walk_lookup(pt, a);
    8000163a:	fe843583          	ld	a1,-24(s0)
    8000163e:	fc843503          	ld	a0,-56(s0)
    80001642:	fffff097          	auipc	ra,0xfffff
    80001646:	740080e7          	jalr	1856(ra) # 80000d82 <walk_lookup>
    8000164a:	fca43c23          	sd	a0,-40(s0)
        if (!pte || (*pte & PTE_V) == 0) return -1;
    8000164e:	fd843783          	ld	a5,-40(s0)
    80001652:	c791                	beqz	a5,8000165e <vm_unmappages+0x64>
    80001654:	fd843783          	ld	a5,-40(s0)
    80001658:	639c                	ld	a5,0(a5)
    8000165a:	8b85                	and	a5,a5,1
    8000165c:	e399                	bnez	a5,80001662 <vm_unmappages+0x68>
    8000165e:	57fd                	li	a5,-1
    80001660:	a881                	j	800016b0 <vm_unmappages+0xb6>
        if (do_free) {
    80001662:	fb442783          	lw	a5,-76(s0)
    80001666:	2781                	sext.w	a5,a5
    80001668:	cf99                	beqz	a5,80001686 <vm_unmappages+0x8c>
            uint64 pa = PTE2PA(*pte);
    8000166a:	fd843783          	ld	a5,-40(s0)
    8000166e:	639c                	ld	a5,0(a5)
    80001670:	83a9                	srl	a5,a5,0xa
    80001672:	07b2                	sll	a5,a5,0xc
    80001674:	fcf43823          	sd	a5,-48(s0)
            free_page((void*)pa);
    80001678:	fd043783          	ld	a5,-48(s0)
    8000167c:	853e                	mv	a0,a5
    8000167e:	fffff097          	auipc	ra,0xfffff
    80001682:	ff8080e7          	jalr	-8(ra) # 80000676 <free_page>
        }
        *pte = 0;
    80001686:	fd843783          	ld	a5,-40(s0)
    8000168a:	0007b023          	sd	zero,0(a5) # fffffffffffff000 <_stack_top+0xffffffff7fff0000>
    for (; a < last; a += PGSIZE) {
    8000168e:	fe843703          	ld	a4,-24(s0)
    80001692:	6785                	lui	a5,0x1
    80001694:	97ba                	add	a5,a5,a4
    80001696:	fef43423          	sd	a5,-24(s0)
    8000169a:	fe843703          	ld	a4,-24(s0)
    8000169e:	fe043783          	ld	a5,-32(s0)
    800016a2:	f8f76ce3          	bltu	a4,a5,8000163a <vm_unmappages+0x40>
    }
    sfence_vma();
    800016a6:	fffff097          	auipc	ra,0xfffff
    800016aa:	5be080e7          	jalr	1470(ra) # 80000c64 <sfence_vma>
    return 0;
    800016ae:	4781                	li	a5,0
}
    800016b0:	853e                	mv	a0,a5
    800016b2:	60a6                	ld	ra,72(sp)
    800016b4:	6406                	ld	s0,64(sp)
    800016b6:	6161                	add	sp,sp,80
    800016b8:	8082                	ret

00000000800016ba <vm_print>:

void vm_print(pagetable_t pt) {
    800016ba:	1101                	add	sp,sp,-32
    800016bc:	ec06                	sd	ra,24(sp)
    800016be:	e822                	sd	s0,16(sp)
    800016c0:	1000                	add	s0,sp,32
    800016c2:	fea43423          	sd	a0,-24(s0)
    dump_pagetable(pt);
    800016c6:	fe843503          	ld	a0,-24(s0)
    800016ca:	00000097          	auipc	ra,0x0
    800016ce:	a7a080e7          	jalr	-1414(ra) # 80001144 <dump_pagetable>
}
    800016d2:	0001                	nop
    800016d4:	60e2                	ld	ra,24(sp)
    800016d6:	6442                	ld	s0,16(sp)
    800016d8:	6105                	add	sp,sp,32
    800016da:	8082                	ret

00000000800016dc <kvm_init>:

void kvm_init(void) {
    800016dc:	1141                	add	sp,sp,-16
    800016de:	e406                	sd	ra,8(sp)
    800016e0:	e022                	sd	s0,0(sp)
    800016e2:	0800                	add	s0,sp,16
    vmem_setup_kernel();
    800016e4:	00000097          	auipc	ra,0x0
    800016e8:	ac0080e7          	jalr	-1344(ra) # 800011a4 <vmem_setup_kernel>
}
    800016ec:	0001                	nop
    800016ee:	60a2                	ld	ra,8(sp)
    800016f0:	6402                	ld	s0,0(sp)
    800016f2:	0141                	add	sp,sp,16
    800016f4:	8082                	ret

00000000800016f6 <kvm_inithart>:

void kvm_inithart(void) {
    800016f6:	1101                	add	sp,sp,-32
    800016f8:	ec06                	sd	ra,24(sp)
    800016fa:	e822                	sd	s0,16(sp)
    800016fc:	1000                	add	s0,sp,32
    pagetable_t kpgtbl = vmem_setup_kernel();
    800016fe:	00000097          	auipc	ra,0x0
    80001702:	aa6080e7          	jalr	-1370(ra) # 800011a4 <vmem_setup_kernel>
    80001706:	fea43423          	sd	a0,-24(s0)
    vmem_enable(kpgtbl);
    8000170a:	fe843503          	ld	a0,-24(s0)
    8000170e:	00000097          	auipc	ra,0x0
    80001712:	c82080e7          	jalr	-894(ra) # 80001390 <vmem_enable>
}
    80001716:	0001                	nop
    80001718:	60e2                	ld	ra,24(sp)
    8000171a:	6442                	ld	s0,16(sp)
    8000171c:	6105                	add	sp,sp,32
    8000171e:	8082                	ret

0000000080001720 <r_sstatus>:
{
    80001720:	1101                	add	sp,sp,-32
    80001722:	ec22                	sd	s0,24(sp)
    80001724:	1000                	add	s0,sp,32
  asm volatile("csrr %0, sstatus" : "=r" (x) );
    80001726:	100027f3          	csrr	a5,sstatus
    8000172a:	fef43423          	sd	a5,-24(s0)
  return x;
    8000172e:	fe843783          	ld	a5,-24(s0)
}
    80001732:	853e                	mv	a0,a5
    80001734:	6462                	ld	s0,24(sp)
    80001736:	6105                	add	sp,sp,32
    80001738:	8082                	ret

000000008000173a <w_sstatus>:
{
    8000173a:	1101                	add	sp,sp,-32
    8000173c:	ec22                	sd	s0,24(sp)
    8000173e:	1000                	add	s0,sp,32
    80001740:	fea43423          	sd	a0,-24(s0)
  asm volatile("csrw sstatus, %0" : : "r" (x));
    80001744:	fe843783          	ld	a5,-24(s0)
    80001748:	10079073          	csrw	sstatus,a5
}
    8000174c:	0001                	nop
    8000174e:	6462                	ld	s0,24(sp)
    80001750:	6105                	add	sp,sp,32
    80001752:	8082                	ret

0000000080001754 <intr_on>:
{
    80001754:	1141                	add	sp,sp,-16
    80001756:	e406                	sd	ra,8(sp)
    80001758:	e022                	sd	s0,0(sp)
    8000175a:	0800                	add	s0,sp,16
  w_sstatus(r_sstatus() | SSTATUS_SIE);
    8000175c:	00000097          	auipc	ra,0x0
    80001760:	fc4080e7          	jalr	-60(ra) # 80001720 <r_sstatus>
    80001764:	87aa                	mv	a5,a0
    80001766:	0027e793          	or	a5,a5,2
    8000176a:	853e                	mv	a0,a5
    8000176c:	00000097          	auipc	ra,0x0
    80001770:	fce080e7          	jalr	-50(ra) # 8000173a <w_sstatus>
}
    80001774:	0001                	nop
    80001776:	60a2                	ld	ra,8(sp)
    80001778:	6402                	ld	s0,0(sp)
    8000177a:	0141                	add	sp,sp,16
    8000177c:	8082                	ret

000000008000177e <intr_off>:
{
    8000177e:	1141                	add	sp,sp,-16
    80001780:	e406                	sd	ra,8(sp)
    80001782:	e022                	sd	s0,0(sp)
    80001784:	0800                	add	s0,sp,16
  w_sstatus(r_sstatus() & ~SSTATUS_SIE);
    80001786:	00000097          	auipc	ra,0x0
    8000178a:	f9a080e7          	jalr	-102(ra) # 80001720 <r_sstatus>
    8000178e:	87aa                	mv	a5,a0
    80001790:	9bf5                	and	a5,a5,-3
    80001792:	853e                	mv	a0,a5
    80001794:	00000097          	auipc	ra,0x0
    80001798:	fa6080e7          	jalr	-90(ra) # 8000173a <w_sstatus>
}
    8000179c:	0001                	nop
    8000179e:	60a2                	ld	ra,8(sp)
    800017a0:	6402                	ld	s0,0(sp)
    800017a2:	0141                	add	sp,sp,16
    800017a4:	8082                	ret

00000000800017a6 <intr_get>:
{
    800017a6:	1101                	add	sp,sp,-32
    800017a8:	ec06                	sd	ra,24(sp)
    800017aa:	e822                	sd	s0,16(sp)
    800017ac:	1000                	add	s0,sp,32
  uint64 x = r_sstatus();
    800017ae:	00000097          	auipc	ra,0x0
    800017b2:	f72080e7          	jalr	-142(ra) # 80001720 <r_sstatus>
    800017b6:	fea43423          	sd	a0,-24(s0)
  return (x & SSTATUS_SIE) != 0;
    800017ba:	fe843783          	ld	a5,-24(s0)
    800017be:	8b89                	and	a5,a5,2
    800017c0:	00f037b3          	snez	a5,a5
    800017c4:	0ff7f793          	zext.b	a5,a5
    800017c8:	2781                	sext.w	a5,a5
}
    800017ca:	853e                	mv	a0,a5
    800017cc:	60e2                	ld	ra,24(sp)
    800017ce:	6442                	ld	s0,16(sp)
    800017d0:	6105                	add	sp,sp,32
    800017d2:	8082                	ret

00000000800017d4 <local_state>:
};

// In this lab OS we run single-core by default, so store a single slot.
static struct cpu_local_state cpu_state = {0, 0};

static inline struct cpu_local_state* local_state(void) {
    800017d4:	1141                	add	sp,sp,-16
    800017d6:	e422                	sd	s0,8(sp)
    800017d8:	0800                	add	s0,sp,16
    return &cpu_state;
    800017da:	00005797          	auipc	a5,0x5
    800017de:	71e78793          	add	a5,a5,1822 # 80006ef8 <cpu_state>
}
    800017e2:	853e                	mv	a0,a5
    800017e4:	6422                	ld	s0,8(sp)
    800017e6:	0141                	add	sp,sp,16
    800017e8:	8082                	ret

00000000800017ea <initlock>:

void initlock(struct spinlock* lk, const char* name) {
    800017ea:	1101                	add	sp,sp,-32
    800017ec:	ec22                	sd	s0,24(sp)
    800017ee:	1000                	add	s0,sp,32
    800017f0:	fea43423          	sd	a0,-24(s0)
    800017f4:	feb43023          	sd	a1,-32(s0)
    lk->locked = 0;
    800017f8:	fe843783          	ld	a5,-24(s0)
    800017fc:	0007a023          	sw	zero,0(a5)
    lk->name = name;
    80001800:	fe843783          	ld	a5,-24(s0)
    80001804:	fe043703          	ld	a4,-32(s0)
    80001808:	e798                	sd	a4,8(a5)
}
    8000180a:	0001                	nop
    8000180c:	6462                	ld	s0,24(sp)
    8000180e:	6105                	add	sp,sp,32
    80001810:	8082                	ret

0000000080001812 <holding>:

int holding(struct spinlock* lk) {
    80001812:	1101                	add	sp,sp,-32
    80001814:	ec22                	sd	s0,24(sp)
    80001816:	1000                	add	s0,sp,32
    80001818:	fea43423          	sd	a0,-24(s0)
    return lk->locked != 0;
    8000181c:	fe843783          	ld	a5,-24(s0)
    80001820:	439c                	lw	a5,0(a5)
    80001822:	00f037b3          	snez	a5,a5
    80001826:	0ff7f793          	zext.b	a5,a5
    8000182a:	2781                	sext.w	a5,a5
}
    8000182c:	853e                	mv	a0,a5
    8000182e:	6462                	ld	s0,24(sp)
    80001830:	6105                	add	sp,sp,32
    80001832:	8082                	ret

0000000080001834 <acquire>:

void acquire(struct spinlock* lk) {
    80001834:	1101                	add	sp,sp,-32
    80001836:	ec06                	sd	ra,24(sp)
    80001838:	e822                	sd	s0,16(sp)
    8000183a:	1000                	add	s0,sp,32
    8000183c:	fea43423          	sd	a0,-24(s0)
    push_off();
    80001840:	00000097          	auipc	ra,0x0
    80001844:	052080e7          	jalr	82(ra) # 80001892 <push_off>
    while (__sync_lock_test_and_set(&lk->locked, 1) != 0) {
    80001848:	0001                	nop
    8000184a:	fe843783          	ld	a5,-24(s0)
    8000184e:	4705                	li	a4,1
    80001850:	0ce7a72f          	amoswap.w.aq	a4,a4,(a5)
    80001854:	0007079b          	sext.w	a5,a4
    80001858:	fbed                	bnez	a5,8000184a <acquire+0x16>
        // spin
    }
    __sync_synchronize();
    8000185a:	0ff0000f          	fence
}
    8000185e:	0001                	nop
    80001860:	60e2                	ld	ra,24(sp)
    80001862:	6442                	ld	s0,16(sp)
    80001864:	6105                	add	sp,sp,32
    80001866:	8082                	ret

0000000080001868 <release>:

void release(struct spinlock* lk) {
    80001868:	1101                	add	sp,sp,-32
    8000186a:	ec06                	sd	ra,24(sp)
    8000186c:	e822                	sd	s0,16(sp)
    8000186e:	1000                	add	s0,sp,32
    80001870:	fea43423          	sd	a0,-24(s0)
    __sync_synchronize();
    80001874:	0ff0000f          	fence
    lk->locked = 0;
    80001878:	fe843783          	ld	a5,-24(s0)
    8000187c:	0007a023          	sw	zero,0(a5)
    pop_off();
    80001880:	00000097          	auipc	ra,0x0
    80001884:	06a080e7          	jalr	106(ra) # 800018ea <pop_off>
}
    80001888:	0001                	nop
    8000188a:	60e2                	ld	ra,24(sp)
    8000188c:	6442                	ld	s0,16(sp)
    8000188e:	6105                	add	sp,sp,32
    80001890:	8082                	ret

0000000080001892 <push_off>:

void push_off(void) {
    80001892:	1101                	add	sp,sp,-32
    80001894:	ec06                	sd	ra,24(sp)
    80001896:	e822                	sd	s0,16(sp)
    80001898:	1000                	add	s0,sp,32
    int old = intr_get();
    8000189a:	00000097          	auipc	ra,0x0
    8000189e:	f0c080e7          	jalr	-244(ra) # 800017a6 <intr_get>
    800018a2:	87aa                	mv	a5,a0
    800018a4:	fef42623          	sw	a5,-20(s0)
    intr_off();
    800018a8:	00000097          	auipc	ra,0x0
    800018ac:	ed6080e7          	jalr	-298(ra) # 8000177e <intr_off>
    struct cpu_local_state* st = local_state();
    800018b0:	00000097          	auipc	ra,0x0
    800018b4:	f24080e7          	jalr	-220(ra) # 800017d4 <local_state>
    800018b8:	fea43023          	sd	a0,-32(s0)
    if (st->noff == 0) {
    800018bc:	fe043783          	ld	a5,-32(s0)
    800018c0:	439c                	lw	a5,0(a5)
    800018c2:	e791                	bnez	a5,800018ce <push_off+0x3c>
        st->intena = old;
    800018c4:	fe043783          	ld	a5,-32(s0)
    800018c8:	fec42703          	lw	a4,-20(s0)
    800018cc:	c3d8                	sw	a4,4(a5)
    }
    st->noff += 1;
    800018ce:	fe043783          	ld	a5,-32(s0)
    800018d2:	439c                	lw	a5,0(a5)
    800018d4:	2785                	addw	a5,a5,1
    800018d6:	0007871b          	sext.w	a4,a5
    800018da:	fe043783          	ld	a5,-32(s0)
    800018de:	c398                	sw	a4,0(a5)
}
    800018e0:	0001                	nop
    800018e2:	60e2                	ld	ra,24(sp)
    800018e4:	6442                	ld	s0,16(sp)
    800018e6:	6105                	add	sp,sp,32
    800018e8:	8082                	ret

00000000800018ea <pop_off>:

void pop_off(void) {
    800018ea:	1101                	add	sp,sp,-32
    800018ec:	ec06                	sd	ra,24(sp)
    800018ee:	e822                	sd	s0,16(sp)
    800018f0:	1000                	add	s0,sp,32
    struct cpu_local_state* st = local_state();
    800018f2:	00000097          	auipc	ra,0x0
    800018f6:	ee2080e7          	jalr	-286(ra) # 800017d4 <local_state>
    800018fa:	fea43423          	sd	a0,-24(s0)
    if (intr_get()) {
    800018fe:	00000097          	auipc	ra,0x0
    80001902:	ea8080e7          	jalr	-344(ra) # 800017a6 <intr_get>
    80001906:	87aa                	mv	a5,a0
    80001908:	cb89                	beqz	a5,8000191a <pop_off+0x30>
        panic("pop_off - interruptible");
    8000190a:	00004517          	auipc	a0,0x4
    8000190e:	73650513          	add	a0,a0,1846 # 80006040 <swtch+0x5a4>
    80001912:	00004097          	auipc	ra,0x4
    80001916:	05c080e7          	jalr	92(ra) # 8000596e <panic>
    }
    if (st->noff < 1) {
    8000191a:	fe843783          	ld	a5,-24(s0)
    8000191e:	439c                	lw	a5,0(a5)
    80001920:	00f04a63          	bgtz	a5,80001934 <pop_off+0x4a>
        panic("pop_off");
    80001924:	00004517          	auipc	a0,0x4
    80001928:	73450513          	add	a0,a0,1844 # 80006058 <swtch+0x5bc>
    8000192c:	00004097          	auipc	ra,0x4
    80001930:	042080e7          	jalr	66(ra) # 8000596e <panic>
    }
    st->noff -= 1;
    80001934:	fe843783          	ld	a5,-24(s0)
    80001938:	439c                	lw	a5,0(a5)
    8000193a:	37fd                	addw	a5,a5,-1
    8000193c:	0007871b          	sext.w	a4,a5
    80001940:	fe843783          	ld	a5,-24(s0)
    80001944:	c398                	sw	a4,0(a5)
    if (st->noff == 0 && st->intena) {
    80001946:	fe843783          	ld	a5,-24(s0)
    8000194a:	439c                	lw	a5,0(a5)
    8000194c:	eb89                	bnez	a5,8000195e <pop_off+0x74>
    8000194e:	fe843783          	ld	a5,-24(s0)
    80001952:	43dc                	lw	a5,4(a5)
    80001954:	c789                	beqz	a5,8000195e <pop_off+0x74>
        intr_on();
    80001956:	00000097          	auipc	ra,0x0
    8000195a:	dfe080e7          	jalr	-514(ra) # 80001754 <intr_on>
    }
}
    8000195e:	0001                	nop
    80001960:	60e2                	ld	ra,24(sp)
    80001962:	6442                	ld	s0,16(sp)
    80001964:	6105                	add	sp,sp,32
    80001966:	8082                	ret

0000000080001968 <r_sstatus>:
{
    80001968:	1101                	add	sp,sp,-32
    8000196a:	ec22                	sd	s0,24(sp)
    8000196c:	1000                	add	s0,sp,32
  asm volatile("csrr %0, sstatus" : "=r" (x) );
    8000196e:	100027f3          	csrr	a5,sstatus
    80001972:	fef43423          	sd	a5,-24(s0)
  return x;
    80001976:	fe843783          	ld	a5,-24(s0)
}
    8000197a:	853e                	mv	a0,a5
    8000197c:	6462                	ld	s0,24(sp)
    8000197e:	6105                	add	sp,sp,32
    80001980:	8082                	ret

0000000080001982 <w_sstatus>:
{
    80001982:	1101                	add	sp,sp,-32
    80001984:	ec22                	sd	s0,24(sp)
    80001986:	1000                	add	s0,sp,32
    80001988:	fea43423          	sd	a0,-24(s0)
  asm volatile("csrw sstatus, %0" : : "r" (x));
    8000198c:	fe843783          	ld	a5,-24(s0)
    80001990:	10079073          	csrw	sstatus,a5
}
    80001994:	0001                	nop
    80001996:	6462                	ld	s0,24(sp)
    80001998:	6105                	add	sp,sp,32
    8000199a:	8082                	ret

000000008000199c <intr_on>:
{
    8000199c:	1141                	add	sp,sp,-16
    8000199e:	e406                	sd	ra,8(sp)
    800019a0:	e022                	sd	s0,0(sp)
    800019a2:	0800                	add	s0,sp,16
  w_sstatus(r_sstatus() | SSTATUS_SIE);
    800019a4:	00000097          	auipc	ra,0x0
    800019a8:	fc4080e7          	jalr	-60(ra) # 80001968 <r_sstatus>
    800019ac:	87aa                	mv	a5,a0
    800019ae:	0027e793          	or	a5,a5,2
    800019b2:	853e                	mv	a0,a5
    800019b4:	00000097          	auipc	ra,0x0
    800019b8:	fce080e7          	jalr	-50(ra) # 80001982 <w_sstatus>
}
    800019bc:	0001                	nop
    800019be:	60a2                	ld	ra,8(sp)
    800019c0:	6402                	ld	s0,0(sp)
    800019c2:	0141                	add	sp,sp,16
    800019c4:	8082                	ret

00000000800019c6 <intr_get>:
{
    800019c6:	1101                	add	sp,sp,-32
    800019c8:	ec06                	sd	ra,24(sp)
    800019ca:	e822                	sd	s0,16(sp)
    800019cc:	1000                	add	s0,sp,32
  uint64 x = r_sstatus();
    800019ce:	00000097          	auipc	ra,0x0
    800019d2:	f9a080e7          	jalr	-102(ra) # 80001968 <r_sstatus>
    800019d6:	fea43423          	sd	a0,-24(s0)
  return (x & SSTATUS_SIE) != 0;
    800019da:	fe843783          	ld	a5,-24(s0)
    800019de:	8b89                	and	a5,a5,2
    800019e0:	00f037b3          	snez	a5,a5
    800019e4:	0ff7f793          	zext.b	a5,a5
    800019e8:	2781                	sext.w	a5,a5
}
    800019ea:	853e                	mv	a0,a5
    800019ec:	60e2                	ld	ra,24(sp)
    800019ee:	6442                	ld	s0,16(sp)
    800019f0:	6105                	add	sp,sp,32
    800019f2:	8082                	ret

00000000800019f4 <r_tp>:
{
    800019f4:	1101                	add	sp,sp,-32
    800019f6:	ec22                	sd	s0,24(sp)
    800019f8:	1000                	add	s0,sp,32
  asm volatile("mv %0, tp" : "=r" (x) );
    800019fa:	8792                	mv	a5,tp
    800019fc:	fef43423          	sd	a5,-24(s0)
  return x;
    80001a00:	fe843783          	ld	a5,-24(s0)
}
    80001a04:	853e                	mv	a0,a5
    80001a06:	6462                	ld	s0,24(sp)
    80001a08:	6105                	add	sp,sp,32
    80001a0a:	8082                	ret

0000000080001a0c <alloc_pid>:

static void reset_sched_state(struct proc* p);
static void age_runnable(uint64 now);
static struct proc* pick_runnable(uint64 now);

static int alloc_pid(void) {
    80001a0c:	1101                	add	sp,sp,-32
    80001a0e:	ec06                	sd	ra,24(sp)
    80001a10:	e822                	sd	s0,16(sp)
    80001a12:	1000                	add	s0,sp,32
    int pid;
    acquire(&pid_lock);
    80001a14:	00009517          	auipc	a0,0x9
    80001a18:	4f450513          	add	a0,a0,1268 # 8000af08 <pid_lock>
    80001a1c:	00000097          	auipc	ra,0x0
    80001a20:	e18080e7          	jalr	-488(ra) # 80001834 <acquire>
    pid = nextpid++;
    80001a24:	00005797          	auipc	a5,0x5
    80001a28:	41878793          	add	a5,a5,1048 # 80006e3c <nextpid>
    80001a2c:	439c                	lw	a5,0(a5)
    80001a2e:	0017871b          	addw	a4,a5,1
    80001a32:	0007069b          	sext.w	a3,a4
    80001a36:	00005717          	auipc	a4,0x5
    80001a3a:	40670713          	add	a4,a4,1030 # 80006e3c <nextpid>
    80001a3e:	c314                	sw	a3,0(a4)
    80001a40:	fef42623          	sw	a5,-20(s0)
    release(&pid_lock);
    80001a44:	00009517          	auipc	a0,0x9
    80001a48:	4c450513          	add	a0,a0,1220 # 8000af08 <pid_lock>
    80001a4c:	00000097          	auipc	ra,0x0
    80001a50:	e1c080e7          	jalr	-484(ra) # 80001868 <release>
    return pid;
    80001a54:	fec42783          	lw	a5,-20(s0)
}
    80001a58:	853e                	mv	a0,a5
    80001a5a:	60e2                	ld	ra,24(sp)
    80001a5c:	6442                	ld	s0,16(sp)
    80001a5e:	6105                	add	sp,sp,32
    80001a60:	8082                	ret

0000000080001a62 <proc_init>:

void proc_init(void) {
    80001a62:	1101                	add	sp,sp,-32
    80001a64:	ec06                	sd	ra,24(sp)
    80001a66:	e822                	sd	s0,16(sp)
    80001a68:	1000                	add	s0,sp,32
    initlock(&pid_lock, "pid");
    80001a6a:	00004597          	auipc	a1,0x4
    80001a6e:	5f658593          	add	a1,a1,1526 # 80006060 <swtch+0x5c4>
    80001a72:	00009517          	auipc	a0,0x9
    80001a76:	49650513          	add	a0,a0,1174 # 8000af08 <pid_lock>
    80001a7a:	00000097          	auipc	ra,0x0
    80001a7e:	d70080e7          	jalr	-656(ra) # 800017ea <initlock>
    last_aging_tick = 0;
    80001a82:	00009797          	auipc	a5,0x9
    80001a86:	50678793          	add	a5,a5,1286 # 8000af88 <last_aging_tick>
    80001a8a:	0007b023          	sd	zero,0(a5)
    for (int i = 0; i < NPROC; i++) {
    80001a8e:	fe042623          	sw	zero,-20(s0)
    80001a92:	a0a5                	j	80001afa <proc_init+0x98>
        struct proc* p = &proc_table[i];
    80001a94:	fec42783          	lw	a5,-20(s0)
    80001a98:	00879713          	sll	a4,a5,0x8
    80001a9c:	00005797          	auipc	a5,0x5
    80001aa0:	46478793          	add	a5,a5,1124 # 80006f00 <proc_table>
    80001aa4:	97ba                	add	a5,a5,a4
    80001aa6:	fef43023          	sd	a5,-32(s0)
        initlock(&p->lock, "proc");
    80001aaa:	fe043783          	ld	a5,-32(s0)
    80001aae:	00004597          	auipc	a1,0x4
    80001ab2:	5ba58593          	add	a1,a1,1466 # 80006068 <swtch+0x5cc>
    80001ab6:	853e                	mv	a0,a5
    80001ab8:	00000097          	auipc	ra,0x0
    80001abc:	d32080e7          	jalr	-718(ra) # 800017ea <initlock>
        p->state = PROC_UNUSED;
    80001ac0:	fe043783          	ld	a5,-32(s0)
    80001ac4:	0007a823          	sw	zero,16(a5)
        p->priority = PRIORITY_DEFAULT;
    80001ac8:	fe043783          	ld	a5,-32(s0)
    80001acc:	4729                	li	a4,10
    80001ace:	cfb8                	sw	a4,88(a5)
        p->time_slice = TIME_SLICE_TICKS;
    80001ad0:	fe043783          	ld	a5,-32(s0)
    80001ad4:	4715                	li	a4,5
    80001ad6:	cff8                	sw	a4,92(a5)
        p->runtime_ticks = 0;
    80001ad8:	fe043783          	ld	a5,-32(s0)
    80001adc:	0407b423          	sd	zero,72(a5)
        p->last_scheduled = 0;
    80001ae0:	fe043783          	ld	a5,-32(s0)
    80001ae4:	0407b823          	sd	zero,80(a5)
        p->need_resched = 0;
    80001ae8:	fe043783          	ld	a5,-32(s0)
    80001aec:	0607a023          	sw	zero,96(a5)
    for (int i = 0; i < NPROC; i++) {
    80001af0:	fec42783          	lw	a5,-20(s0)
    80001af4:	2785                	addw	a5,a5,1
    80001af6:	fef42623          	sw	a5,-20(s0)
    80001afa:	fec42783          	lw	a5,-20(s0)
    80001afe:	0007871b          	sext.w	a4,a5
    80001b02:	03f00793          	li	a5,63
    80001b06:	f8e7d7e3          	bge	a5,a4,80001a94 <proc_init+0x32>
    }
}
    80001b0a:	0001                	nop
    80001b0c:	0001                	nop
    80001b0e:	60e2                	ld	ra,24(sp)
    80001b10:	6442                	ld	s0,16(sp)
    80001b12:	6105                	add	sp,sp,32
    80001b14:	8082                	ret

0000000080001b16 <free_kstack>:

static void free_kstack(struct proc* p) {
    80001b16:	7179                	add	sp,sp,-48
    80001b18:	f406                	sd	ra,40(sp)
    80001b1a:	f022                	sd	s0,32(sp)
    80001b1c:	1800                	add	s0,sp,48
    80001b1e:	fca43c23          	sd	a0,-40(s0)
    if (p->kstack) {
    80001b22:	fd843783          	ld	a5,-40(s0)
    80001b26:	77bc                	ld	a5,104(a5)
    80001b28:	c395                	beqz	a5,80001b4c <free_kstack+0x36>
        void* base = (void*)PGROUNDDOWN(p->kstack);
    80001b2a:	fd843783          	ld	a5,-40(s0)
    80001b2e:	77b8                	ld	a4,104(a5)
    80001b30:	77fd                	lui	a5,0xfffff
    80001b32:	8ff9                	and	a5,a5,a4
    80001b34:	fef43423          	sd	a5,-24(s0)
        free_page(base);
    80001b38:	fe843503          	ld	a0,-24(s0)
    80001b3c:	fffff097          	auipc	ra,0xfffff
    80001b40:	b3a080e7          	jalr	-1222(ra) # 80000676 <free_page>
        p->kstack = 0;
    80001b44:	fd843783          	ld	a5,-40(s0)
    80001b48:	0607b423          	sd	zero,104(a5) # fffffffffffff068 <_stack_top+0xffffffff7fff0068>
    }
}
    80001b4c:	0001                	nop
    80001b4e:	70a2                	ld	ra,40(sp)
    80001b50:	7402                	ld	s0,32(sp)
    80001b52:	6145                	add	sp,sp,48
    80001b54:	8082                	ret

0000000080001b56 <free_process>:

void free_process(struct proc* p) {
    80001b56:	1101                	add	sp,sp,-32
    80001b58:	ec06                	sd	ra,24(sp)
    80001b5a:	e822                	sd	s0,16(sp)
    80001b5c:	1000                	add	s0,sp,32
    80001b5e:	fea43423          	sd	a0,-24(s0)
    if (!p) return;
    80001b62:	fe843783          	ld	a5,-24(s0)
    80001b66:	c7dd                	beqz	a5,80001c14 <free_process+0xbe>
    if (p->trapframe) {
    80001b68:	fe843783          	ld	a5,-24(s0)
    80001b6c:	7f9c                	ld	a5,56(a5)
    80001b6e:	cf89                	beqz	a5,80001b88 <free_process+0x32>
        free_page(p->trapframe);
    80001b70:	fe843783          	ld	a5,-24(s0)
    80001b74:	7f9c                	ld	a5,56(a5)
    80001b76:	853e                	mv	a0,a5
    80001b78:	fffff097          	auipc	ra,0xfffff
    80001b7c:	afe080e7          	jalr	-1282(ra) # 80000676 <free_page>
        p->trapframe = NULL;
    80001b80:	fe843783          	ld	a5,-24(s0)
    80001b84:	0207bc23          	sd	zero,56(a5)
    }
    free_kstack(p);
    80001b88:	fe843503          	ld	a0,-24(s0)
    80001b8c:	00000097          	auipc	ra,0x0
    80001b90:	f8a080e7          	jalr	-118(ra) # 80001b16 <free_kstack>
    p->pagetable = NULL;
    80001b94:	fe843783          	ld	a5,-24(s0)
    80001b98:	0207b823          	sd	zero,48(a5)
    p->entry = NULL;
    80001b9c:	fe843783          	ld	a5,-24(s0)
    80001ba0:	0e07b423          	sd	zero,232(a5)
    p->parent = NULL;
    80001ba4:	fe843783          	ld	a5,-24(s0)
    80001ba8:	0e07b023          	sd	zero,224(a5)
    p->state = PROC_UNUSED;
    80001bac:	fe843783          	ld	a5,-24(s0)
    80001bb0:	0007a823          	sw	zero,16(a5)
    p->pid = 0;
    80001bb4:	fe843783          	ld	a5,-24(s0)
    80001bb8:	0207a423          	sw	zero,40(a5)
    p->xstate = 0;
    80001bbc:	fe843783          	ld	a5,-24(s0)
    80001bc0:	0207a223          	sw	zero,36(a5)
    p->killed = 0;
    80001bc4:	fe843783          	ld	a5,-24(s0)
    80001bc8:	0207a023          	sw	zero,32(a5)
    p->chan = NULL;
    80001bcc:	fe843783          	ld	a5,-24(s0)
    80001bd0:	0007bc23          	sd	zero,24(a5)
    p->priority = PRIORITY_DEFAULT;
    80001bd4:	fe843783          	ld	a5,-24(s0)
    80001bd8:	4729                	li	a4,10
    80001bda:	cfb8                	sw	a4,88(a5)
    p->time_slice = TIME_SLICE_TICKS;
    80001bdc:	fe843783          	ld	a5,-24(s0)
    80001be0:	4715                	li	a4,5
    80001be2:	cff8                	sw	a4,92(a5)
    p->runtime_ticks = 0;
    80001be4:	fe843783          	ld	a5,-24(s0)
    80001be8:	0407b423          	sd	zero,72(a5)
    p->last_scheduled = 0;
    80001bec:	fe843783          	ld	a5,-24(s0)
    80001bf0:	0407b823          	sd	zero,80(a5)
    p->need_resched = 0;
    80001bf4:	fe843783          	ld	a5,-24(s0)
    80001bf8:	0607a023          	sw	zero,96(a5)
    memset(p->name, 0, sizeof(p->name));
    80001bfc:	fe843783          	ld	a5,-24(s0)
    80001c00:	0f078793          	add	a5,a5,240
    80001c04:	4641                	li	a2,16
    80001c06:	4581                	li	a1,0
    80001c08:	853e                	mv	a0,a5
    80001c0a:	00003097          	auipc	ra,0x3
    80001c0e:	3c2080e7          	jalr	962(ra) # 80004fcc <memset>
    80001c12:	a011                	j	80001c16 <free_process+0xc0>
    if (!p) return;
    80001c14:	0001                	nop
}
    80001c16:	60e2                	ld	ra,24(sp)
    80001c18:	6442                	ld	s0,16(sp)
    80001c1a:	6105                	add	sp,sp,32
    80001c1c:	8082                	ret

0000000080001c1e <reset_sched_state>:

static void reset_sched_state(struct proc* p) {
    80001c1e:	1101                	add	sp,sp,-32
    80001c20:	ec06                	sd	ra,24(sp)
    80001c22:	e822                	sd	s0,16(sp)
    80001c24:	1000                	add	s0,sp,32
    80001c26:	fea43423          	sd	a0,-24(s0)
    p->priority = PRIORITY_DEFAULT;
    80001c2a:	fe843783          	ld	a5,-24(s0)
    80001c2e:	4729                	li	a4,10
    80001c30:	cfb8                	sw	a4,88(a5)
    p->time_slice = TIME_SLICE_TICKS;
    80001c32:	fe843783          	ld	a5,-24(s0)
    80001c36:	4715                	li	a4,5
    80001c38:	cff8                	sw	a4,92(a5)
    p->runtime_ticks = 0;
    80001c3a:	fe843783          	ld	a5,-24(s0)
    80001c3e:	0407b423          	sd	zero,72(a5)
    p->last_scheduled = timer_ticks();
    80001c42:	00002097          	auipc	ra,0x2
    80001c46:	40a080e7          	jalr	1034(ra) # 8000404c <timer_ticks>
    80001c4a:	872a                	mv	a4,a0
    80001c4c:	fe843783          	ld	a5,-24(s0)
    80001c50:	ebb8                	sd	a4,80(a5)
    p->need_resched = 0;
    80001c52:	fe843783          	ld	a5,-24(s0)
    80001c56:	0607a023          	sw	zero,96(a5)
}
    80001c5a:	0001                	nop
    80001c5c:	60e2                	ld	ra,24(sp)
    80001c5e:	6442                	ld	s0,16(sp)
    80001c60:	6105                	add	sp,sp,32
    80001c62:	8082                	ret

0000000080001c64 <alloc_process>:

struct proc* alloc_process(void) {
    80001c64:	7179                	add	sp,sp,-48
    80001c66:	f406                	sd	ra,40(sp)
    80001c68:	f022                	sd	s0,32(sp)
    80001c6a:	1800                	add	s0,sp,48
    for (int i = 0; i < NPROC; i++) {
    80001c6c:	fe042623          	sw	zero,-20(s0)
    80001c70:	aab9                	j	80001dce <alloc_process+0x16a>
        struct proc* p = &proc_table[i];
    80001c72:	fec42783          	lw	a5,-20(s0)
    80001c76:	00879713          	sll	a4,a5,0x8
    80001c7a:	00005797          	auipc	a5,0x5
    80001c7e:	28678793          	add	a5,a5,646 # 80006f00 <proc_table>
    80001c82:	97ba                	add	a5,a5,a4
    80001c84:	fef43023          	sd	a5,-32(s0)
        acquire(&p->lock);
    80001c88:	fe043783          	ld	a5,-32(s0)
    80001c8c:	853e                	mv	a0,a5
    80001c8e:	00000097          	auipc	ra,0x0
    80001c92:	ba6080e7          	jalr	-1114(ra) # 80001834 <acquire>
        if (p->state != PROC_UNUSED) {
    80001c96:	fe043783          	ld	a5,-32(s0)
    80001c9a:	4b9c                	lw	a5,16(a5)
    80001c9c:	cb89                	beqz	a5,80001cae <alloc_process+0x4a>
            release(&p->lock);
    80001c9e:	fe043783          	ld	a5,-32(s0)
    80001ca2:	853e                	mv	a0,a5
    80001ca4:	00000097          	auipc	ra,0x0
    80001ca8:	bc4080e7          	jalr	-1084(ra) # 80001868 <release>
            continue;
    80001cac:	aa21                	j	80001dc4 <alloc_process+0x160>
        }
        p->pid = alloc_pid();
    80001cae:	00000097          	auipc	ra,0x0
    80001cb2:	d5e080e7          	jalr	-674(ra) # 80001a0c <alloc_pid>
    80001cb6:	87aa                	mv	a5,a0
    80001cb8:	873e                	mv	a4,a5
    80001cba:	fe043783          	ld	a5,-32(s0)
    80001cbe:	d798                	sw	a4,40(a5)
        p->state = PROC_USED;
    80001cc0:	fe043783          	ld	a5,-32(s0)
    80001cc4:	4705                	li	a4,1
    80001cc6:	cb98                	sw	a4,16(a5)

        void* tf = alloc_page();
    80001cc8:	fffff097          	auipc	ra,0xfffff
    80001ccc:	a32080e7          	jalr	-1486(ra) # 800006fa <alloc_page>
    80001cd0:	fca43c23          	sd	a0,-40(s0)
        void* kstack = alloc_page();
    80001cd4:	fffff097          	auipc	ra,0xfffff
    80001cd8:	a26080e7          	jalr	-1498(ra) # 800006fa <alloc_page>
    80001cdc:	fca43823          	sd	a0,-48(s0)
        if (!tf || !kstack) {
    80001ce0:	fd843783          	ld	a5,-40(s0)
    80001ce4:	c781                	beqz	a5,80001cec <alloc_process+0x88>
    80001ce6:	fd043783          	ld	a5,-48(s0)
    80001cea:	e3a1                	bnez	a5,80001d2a <alloc_process+0xc6>
            if (tf) free_page(tf);
    80001cec:	fd843783          	ld	a5,-40(s0)
    80001cf0:	c799                	beqz	a5,80001cfe <alloc_process+0x9a>
    80001cf2:	fd843503          	ld	a0,-40(s0)
    80001cf6:	fffff097          	auipc	ra,0xfffff
    80001cfa:	980080e7          	jalr	-1664(ra) # 80000676 <free_page>
            if (kstack) free_page(kstack);
    80001cfe:	fd043783          	ld	a5,-48(s0)
    80001d02:	c799                	beqz	a5,80001d10 <alloc_process+0xac>
    80001d04:	fd043503          	ld	a0,-48(s0)
    80001d08:	fffff097          	auipc	ra,0xfffff
    80001d0c:	96e080e7          	jalr	-1682(ra) # 80000676 <free_page>
            p->state = PROC_UNUSED;
    80001d10:	fe043783          	ld	a5,-32(s0)
    80001d14:	0007a823          	sw	zero,16(a5)
            release(&p->lock);
    80001d18:	fe043783          	ld	a5,-32(s0)
    80001d1c:	853e                	mv	a0,a5
    80001d1e:	00000097          	auipc	ra,0x0
    80001d22:	b4a080e7          	jalr	-1206(ra) # 80001868 <release>
            return NULL;
    80001d26:	4781                	li	a5,0
    80001d28:	a865                	j	80001de0 <alloc_process+0x17c>
        }

        memset(tf, 0, PGSIZE);
    80001d2a:	6605                	lui	a2,0x1
    80001d2c:	4581                	li	a1,0
    80001d2e:	fd843503          	ld	a0,-40(s0)
    80001d32:	00003097          	auipc	ra,0x3
    80001d36:	29a080e7          	jalr	666(ra) # 80004fcc <memset>
        memset(&p->ctx, 0, sizeof(p->ctx));
    80001d3a:	fe043783          	ld	a5,-32(s0)
    80001d3e:	07078793          	add	a5,a5,112
    80001d42:	07000613          	li	a2,112
    80001d46:	4581                	li	a1,0
    80001d48:	853e                	mv	a0,a5
    80001d4a:	00003097          	auipc	ra,0x3
    80001d4e:	282080e7          	jalr	642(ra) # 80004fcc <memset>

        p->trapframe = (struct trapframe*)tf;
    80001d52:	fe043783          	ld	a5,-32(s0)
    80001d56:	fd843703          	ld	a4,-40(s0)
    80001d5a:	ff98                	sd	a4,56(a5)
        p->kstack = (uint64)kstack;
    80001d5c:	fd043703          	ld	a4,-48(s0)
    80001d60:	fe043783          	ld	a5,-32(s0)
    80001d64:	f7b8                	sd	a4,104(a5)
        p->ctx.sp = p->kstack + PGSIZE;
    80001d66:	fe043783          	ld	a5,-32(s0)
    80001d6a:	77b8                	ld	a4,104(a5)
    80001d6c:	6785                	lui	a5,0x1
    80001d6e:	973e                	add	a4,a4,a5
    80001d70:	fe043783          	ld	a5,-32(s0)
    80001d74:	ffb8                	sd	a4,120(a5)
        p->killed = 0;
    80001d76:	fe043783          	ld	a5,-32(s0)
    80001d7a:	0207a023          	sw	zero,32(a5) # 1020 <_entry-0x7fffefe0>
        p->xstate = 0;
    80001d7e:	fe043783          	ld	a5,-32(s0)
    80001d82:	0207a223          	sw	zero,36(a5)
        p->pagetable = NULL;
    80001d86:	fe043783          	ld	a5,-32(s0)
    80001d8a:	0207b823          	sd	zero,48(a5)
        p->chan = NULL;
    80001d8e:	fe043783          	ld	a5,-32(s0)
    80001d92:	0007bc23          	sd	zero,24(a5)
        p->brk = (uint64)end;
    80001d96:	0000b717          	auipc	a4,0xb
    80001d9a:	2aa70713          	add	a4,a4,682 # 8000d040 <_bss_end>
    80001d9e:	fe043783          	ld	a5,-32(s0)
    80001da2:	e3b8                	sd	a4,64(a5)
        reset_sched_state(p);
    80001da4:	fe043503          	ld	a0,-32(s0)
    80001da8:	00000097          	auipc	ra,0x0
    80001dac:	e76080e7          	jalr	-394(ra) # 80001c1e <reset_sched_state>
        release(&p->lock);
    80001db0:	fe043783          	ld	a5,-32(s0)
    80001db4:	853e                	mv	a0,a5
    80001db6:	00000097          	auipc	ra,0x0
    80001dba:	ab2080e7          	jalr	-1358(ra) # 80001868 <release>
        return p;
    80001dbe:	fe043783          	ld	a5,-32(s0)
    80001dc2:	a839                	j	80001de0 <alloc_process+0x17c>
    for (int i = 0; i < NPROC; i++) {
    80001dc4:	fec42783          	lw	a5,-20(s0)
    80001dc8:	2785                	addw	a5,a5,1
    80001dca:	fef42623          	sw	a5,-20(s0)
    80001dce:	fec42783          	lw	a5,-20(s0)
    80001dd2:	0007871b          	sext.w	a4,a5
    80001dd6:	03f00793          	li	a5,63
    80001dda:	e8e7dce3          	bge	a5,a4,80001c72 <alloc_process+0xe>
    }
    return NULL;
    80001dde:	4781                	li	a5,0
}
    80001de0:	853e                	mv	a0,a5
    80001de2:	70a2                	ld	ra,40(sp)
    80001de4:	7402                	ld	s0,32(sp)
    80001de6:	6145                	add	sp,sp,48
    80001de8:	8082                	ret

0000000080001dea <proc_entry_wrapper>:

static void proc_entry_wrapper(void) {
    80001dea:	1101                	add	sp,sp,-32
    80001dec:	ec06                	sd	ra,24(sp)
    80001dee:	e822                	sd	s0,16(sp)
    80001df0:	1000                	add	s0,sp,32
    struct proc* p = myproc();
    80001df2:	00000097          	auipc	ra,0x0
    80001df6:	1b8080e7          	jalr	440(ra) # 80001faa <myproc>
    80001dfa:	fea43423          	sd	a0,-24(s0)
    if (!p || !p->entry) {
    80001dfe:	fe843783          	ld	a5,-24(s0)
    80001e02:	c789                	beqz	a5,80001e0c <proc_entry_wrapper+0x22>
    80001e04:	fe843783          	ld	a5,-24(s0)
    80001e08:	77fc                	ld	a5,232(a5)
    80001e0a:	eb89                	bnez	a5,80001e1c <proc_entry_wrapper+0x32>
        panic("proc entry wrapper");
    80001e0c:	00004517          	auipc	a0,0x4
    80001e10:	26450513          	add	a0,a0,612 # 80006070 <swtch+0x5d4>
    80001e14:	00004097          	auipc	ra,0x4
    80001e18:	b5a080e7          	jalr	-1190(ra) # 8000596e <panic>
    }
    release(&p->lock);
    80001e1c:	fe843783          	ld	a5,-24(s0)
    80001e20:	853e                	mv	a0,a5
    80001e22:	00000097          	auipc	ra,0x0
    80001e26:	a46080e7          	jalr	-1466(ra) # 80001868 <release>
    intr_on();
    80001e2a:	00000097          	auipc	ra,0x0
    80001e2e:	b72080e7          	jalr	-1166(ra) # 8000199c <intr_on>
    p->entry();
    80001e32:	fe843783          	ld	a5,-24(s0)
    80001e36:	77fc                	ld	a5,232(a5)
    80001e38:	9782                	jalr	a5
    exit_process(0);
    80001e3a:	4501                	li	a0,0
    80001e3c:	00000097          	auipc	ra,0x0
    80001e40:	3f2080e7          	jalr	1010(ra) # 8000222e <exit_process>

0000000080001e44 <create_process>:
}

int create_process(void (*entry)(void), const char* name) {
    80001e44:	7179                	add	sp,sp,-48
    80001e46:	f406                	sd	ra,40(sp)
    80001e48:	f022                	sd	s0,32(sp)
    80001e4a:	1800                	add	s0,sp,48
    80001e4c:	fca43c23          	sd	a0,-40(s0)
    80001e50:	fcb43823          	sd	a1,-48(s0)
    struct proc* p = alloc_process();
    80001e54:	00000097          	auipc	ra,0x0
    80001e58:	e10080e7          	jalr	-496(ra) # 80001c64 <alloc_process>
    80001e5c:	fea43023          	sd	a0,-32(s0)
    if (!p) return -1;
    80001e60:	fe043783          	ld	a5,-32(s0)
    80001e64:	e399                	bnez	a5,80001e6a <create_process+0x26>
    80001e66:	57fd                	li	a5,-1
    80001e68:	aa29                	j	80001f82 <create_process+0x13e>
    acquire(&p->lock);
    80001e6a:	fe043783          	ld	a5,-32(s0)
    80001e6e:	853e                	mv	a0,a5
    80001e70:	00000097          	auipc	ra,0x0
    80001e74:	9c4080e7          	jalr	-1596(ra) # 80001834 <acquire>
    p->parent = myproc();
    80001e78:	00000097          	auipc	ra,0x0
    80001e7c:	132080e7          	jalr	306(ra) # 80001faa <myproc>
    80001e80:	872a                	mv	a4,a0
    80001e82:	fe043783          	ld	a5,-32(s0)
    80001e86:	f3f8                	sd	a4,224(a5)
    p->entry = entry;
    80001e88:	fe043783          	ld	a5,-32(s0)
    80001e8c:	fd843703          	ld	a4,-40(s0)
    80001e90:	f7f8                	sd	a4,232(a5)
    if (name) {
    80001e92:	fd043783          	ld	a5,-48(s0)
    80001e96:	cbb1                	beqz	a5,80001eea <create_process+0xa6>
        memset(p->name, 0, sizeof(p->name));
    80001e98:	fe043783          	ld	a5,-32(s0)
    80001e9c:	0f078793          	add	a5,a5,240
    80001ea0:	4641                	li	a2,16
    80001ea2:	4581                	li	a1,0
    80001ea4:	853e                	mv	a0,a5
    80001ea6:	00003097          	auipc	ra,0x3
    80001eaa:	126080e7          	jalr	294(ra) # 80004fcc <memset>
        size_t len = strlen(name);
    80001eae:	fd043503          	ld	a0,-48(s0)
    80001eb2:	00003097          	auipc	ra,0x3
    80001eb6:	25c080e7          	jalr	604(ra) # 8000510e <strlen>
    80001eba:	fea43423          	sd	a0,-24(s0)
        if (len >= sizeof(p->name)) len = sizeof(p->name) - 1;
    80001ebe:	fe843703          	ld	a4,-24(s0)
    80001ec2:	47bd                	li	a5,15
    80001ec4:	00e7f563          	bgeu	a5,a4,80001ece <create_process+0x8a>
    80001ec8:	47bd                	li	a5,15
    80001eca:	fef43423          	sd	a5,-24(s0)
        memcpy(p->name, name, len);
    80001ece:	fe043783          	ld	a5,-32(s0)
    80001ed2:	0f078793          	add	a5,a5,240
    80001ed6:	fe843603          	ld	a2,-24(s0)
    80001eda:	fd043583          	ld	a1,-48(s0)
    80001ede:	853e                	mv	a0,a5
    80001ee0:	00003097          	auipc	ra,0x3
    80001ee4:	13c080e7          	jalr	316(ra) # 8000501c <memcpy>
    80001ee8:	a839                	j	80001f06 <create_process+0xc2>
    } else {
        memcpy(p->name, "kproc", 5);
    80001eea:	fe043783          	ld	a5,-32(s0)
    80001eee:	0f078793          	add	a5,a5,240
    80001ef2:	4615                	li	a2,5
    80001ef4:	00004597          	auipc	a1,0x4
    80001ef8:	19458593          	add	a1,a1,404 # 80006088 <swtch+0x5ec>
    80001efc:	853e                	mv	a0,a5
    80001efe:	00003097          	auipc	ra,0x3
    80001f02:	11e080e7          	jalr	286(ra) # 8000501c <memcpy>
    }
    p->priority = p->parent ? p->parent->priority : PRIORITY_DEFAULT;
    80001f06:	fe043783          	ld	a5,-32(s0)
    80001f0a:	73fc                	ld	a5,224(a5)
    80001f0c:	c791                	beqz	a5,80001f18 <create_process+0xd4>
    80001f0e:	fe043783          	ld	a5,-32(s0)
    80001f12:	73fc                	ld	a5,224(a5)
    80001f14:	4fbc                	lw	a5,88(a5)
    80001f16:	a011                	j	80001f1a <create_process+0xd6>
    80001f18:	47a9                	li	a5,10
    80001f1a:	fe043703          	ld	a4,-32(s0)
    80001f1e:	cf3c                	sw	a5,88(a4)
    p->time_slice = TIME_SLICE_TICKS;
    80001f20:	fe043783          	ld	a5,-32(s0)
    80001f24:	4715                	li	a4,5
    80001f26:	cff8                	sw	a4,92(a5)
    p->runtime_ticks = 0;
    80001f28:	fe043783          	ld	a5,-32(s0)
    80001f2c:	0407b423          	sd	zero,72(a5)
    p->last_scheduled = timer_ticks();
    80001f30:	00002097          	auipc	ra,0x2
    80001f34:	11c080e7          	jalr	284(ra) # 8000404c <timer_ticks>
    80001f38:	872a                	mv	a4,a0
    80001f3a:	fe043783          	ld	a5,-32(s0)
    80001f3e:	ebb8                	sd	a4,80(a5)
    p->need_resched = 0;
    80001f40:	fe043783          	ld	a5,-32(s0)
    80001f44:	0607a023          	sw	zero,96(a5)
    p->ctx.ra = (uint64)proc_entry_wrapper;
    80001f48:	00000717          	auipc	a4,0x0
    80001f4c:	ea270713          	add	a4,a4,-350 # 80001dea <proc_entry_wrapper>
    80001f50:	fe043783          	ld	a5,-32(s0)
    80001f54:	fbb8                	sd	a4,112(a5)
    p->ctx.sp = p->kstack + PGSIZE;
    80001f56:	fe043783          	ld	a5,-32(s0)
    80001f5a:	77b8                	ld	a4,104(a5)
    80001f5c:	6785                	lui	a5,0x1
    80001f5e:	973e                	add	a4,a4,a5
    80001f60:	fe043783          	ld	a5,-32(s0)
    80001f64:	ffb8                	sd	a4,120(a5)
    p->state = PROC_RUNNABLE;
    80001f66:	fe043783          	ld	a5,-32(s0)
    80001f6a:	4709                	li	a4,2
    80001f6c:	cb98                	sw	a4,16(a5)
    release(&p->lock);
    80001f6e:	fe043783          	ld	a5,-32(s0)
    80001f72:	853e                	mv	a0,a5
    80001f74:	00000097          	auipc	ra,0x0
    80001f78:	8f4080e7          	jalr	-1804(ra) # 80001868 <release>

    return p->pid;
    80001f7c:	fe043783          	ld	a5,-32(s0)
    80001f80:	579c                	lw	a5,40(a5)
}
    80001f82:	853e                	mv	a0,a5
    80001f84:	70a2                	ld	ra,40(sp)
    80001f86:	7402                	ld	s0,32(sp)
    80001f88:	6145                	add	sp,sp,48
    80001f8a:	8082                	ret

0000000080001f8c <cpuid>:

int cpuid(void) {
    80001f8c:	1141                	add	sp,sp,-16
    80001f8e:	e406                	sd	ra,8(sp)
    80001f90:	e022                	sd	s0,0(sp)
    80001f92:	0800                	add	s0,sp,16
    return (int)r_tp();
    80001f94:	00000097          	auipc	ra,0x0
    80001f98:	a60080e7          	jalr	-1440(ra) # 800019f4 <r_tp>
    80001f9c:	87aa                	mv	a5,a0
    80001f9e:	2781                	sext.w	a5,a5
}
    80001fa0:	853e                	mv	a0,a5
    80001fa2:	60a2                	ld	ra,8(sp)
    80001fa4:	6402                	ld	s0,0(sp)
    80001fa6:	0141                	add	sp,sp,16
    80001fa8:	8082                	ret

0000000080001faa <myproc>:

struct proc* myproc(void) {
    80001faa:	1141                	add	sp,sp,-16
    80001fac:	e422                	sd	s0,8(sp)
    80001fae:	0800                	add	s0,sp,16
    return current_proc;
    80001fb0:	00009797          	auipc	a5,0x9
    80001fb4:	f5078793          	add	a5,a5,-176 # 8000af00 <current_proc>
    80001fb8:	639c                	ld	a5,0(a5)
}
    80001fba:	853e                	mv	a0,a5
    80001fbc:	6422                	ld	s0,8(sp)
    80001fbe:	0141                	add	sp,sp,16
    80001fc0:	8082                	ret

0000000080001fc2 <sched>:

void sched(void) {
    80001fc2:	1101                	add	sp,sp,-32
    80001fc4:	ec06                	sd	ra,24(sp)
    80001fc6:	e822                	sd	s0,16(sp)
    80001fc8:	1000                	add	s0,sp,32
    struct proc* p = myproc();
    80001fca:	00000097          	auipc	ra,0x0
    80001fce:	fe0080e7          	jalr	-32(ra) # 80001faa <myproc>
    80001fd2:	fea43423          	sd	a0,-24(s0)
    if (!p) {
    80001fd6:	fe843783          	ld	a5,-24(s0)
    80001fda:	eb89                	bnez	a5,80001fec <sched+0x2a>
        panic("sched: no current proc");
    80001fdc:	00004517          	auipc	a0,0x4
    80001fe0:	0b450513          	add	a0,a0,180 # 80006090 <swtch+0x5f4>
    80001fe4:	00004097          	auipc	ra,0x4
    80001fe8:	98a080e7          	jalr	-1654(ra) # 8000596e <panic>
    }
    if (!holding(&p->lock)) {
    80001fec:	fe843783          	ld	a5,-24(s0)
    80001ff0:	853e                	mv	a0,a5
    80001ff2:	00000097          	auipc	ra,0x0
    80001ff6:	820080e7          	jalr	-2016(ra) # 80001812 <holding>
    80001ffa:	87aa                	mv	a5,a0
    80001ffc:	eb89                	bnez	a5,8000200e <sched+0x4c>
        panic("sched: lock not held");
    80001ffe:	00004517          	auipc	a0,0x4
    80002002:	0aa50513          	add	a0,a0,170 # 800060a8 <swtch+0x60c>
    80002006:	00004097          	auipc	ra,0x4
    8000200a:	968080e7          	jalr	-1688(ra) # 8000596e <panic>
    }
    if (intr_get()) {
    8000200e:	00000097          	auipc	ra,0x0
    80002012:	9b8080e7          	jalr	-1608(ra) # 800019c6 <intr_get>
    80002016:	87aa                	mv	a5,a0
    80002018:	cb89                	beqz	a5,8000202a <sched+0x68>
        panic("sched: interruptible");
    8000201a:	00004517          	auipc	a0,0x4
    8000201e:	0a650513          	add	a0,a0,166 # 800060c0 <swtch+0x624>
    80002022:	00004097          	auipc	ra,0x4
    80002026:	94c080e7          	jalr	-1716(ra) # 8000596e <panic>
    }
    swtch(&p->ctx, &scheduler_ctx);
    8000202a:	fe843783          	ld	a5,-24(s0)
    8000202e:	07078793          	add	a5,a5,112
    80002032:	00009597          	auipc	a1,0x9
    80002036:	ee658593          	add	a1,a1,-282 # 8000af18 <scheduler_ctx>
    8000203a:	853e                	mv	a0,a5
    8000203c:	00004097          	auipc	ra,0x4
    80002040:	a60080e7          	jalr	-1440(ra) # 80005a9c <swtch>
}
    80002044:	0001                	nop
    80002046:	60e2                	ld	ra,24(sp)
    80002048:	6442                	ld	s0,16(sp)
    8000204a:	6105                	add	sp,sp,32
    8000204c:	8082                	ret

000000008000204e <yield>:

void yield(void) {
    8000204e:	1101                	add	sp,sp,-32
    80002050:	ec06                	sd	ra,24(sp)
    80002052:	e822                	sd	s0,16(sp)
    80002054:	1000                	add	s0,sp,32
    struct proc* p = myproc();
    80002056:	00000097          	auipc	ra,0x0
    8000205a:	f54080e7          	jalr	-172(ra) # 80001faa <myproc>
    8000205e:	fea43423          	sd	a0,-24(s0)
    if (!p) return;
    80002062:	fe843783          	ld	a5,-24(s0)
    80002066:	c3a1                	beqz	a5,800020a6 <yield+0x58>
    acquire(&p->lock);
    80002068:	fe843783          	ld	a5,-24(s0)
    8000206c:	853e                	mv	a0,a5
    8000206e:	fffff097          	auipc	ra,0xfffff
    80002072:	7c6080e7          	jalr	1990(ra) # 80001834 <acquire>
    p->state = PROC_RUNNABLE;
    80002076:	fe843783          	ld	a5,-24(s0)
    8000207a:	4709                	li	a4,2
    8000207c:	cb98                	sw	a4,16(a5)
    sched();
    8000207e:	00000097          	auipc	ra,0x0
    80002082:	f44080e7          	jalr	-188(ra) # 80001fc2 <sched>
    p->time_slice = TIME_SLICE_TICKS;
    80002086:	fe843783          	ld	a5,-24(s0)
    8000208a:	4715                	li	a4,5
    8000208c:	cff8                	sw	a4,92(a5)
    p->need_resched = 0;
    8000208e:	fe843783          	ld	a5,-24(s0)
    80002092:	0607a023          	sw	zero,96(a5)
    release(&p->lock);
    80002096:	fe843783          	ld	a5,-24(s0)
    8000209a:	853e                	mv	a0,a5
    8000209c:	fffff097          	auipc	ra,0xfffff
    800020a0:	7cc080e7          	jalr	1996(ra) # 80001868 <release>
    800020a4:	a011                	j	800020a8 <yield+0x5a>
    if (!p) return;
    800020a6:	0001                	nop
}
    800020a8:	60e2                	ld	ra,24(sp)
    800020aa:	6442                	ld	s0,16(sp)
    800020ac:	6105                	add	sp,sp,32
    800020ae:	8082                	ret

00000000800020b0 <sleep>:

void sleep(void* chan, struct spinlock* lk) {
    800020b0:	7179                	add	sp,sp,-48
    800020b2:	f406                	sd	ra,40(sp)
    800020b4:	f022                	sd	s0,32(sp)
    800020b6:	1800                	add	s0,sp,48
    800020b8:	fca43c23          	sd	a0,-40(s0)
    800020bc:	fcb43823          	sd	a1,-48(s0)
    struct proc* p = myproc();
    800020c0:	00000097          	auipc	ra,0x0
    800020c4:	eea080e7          	jalr	-278(ra) # 80001faa <myproc>
    800020c8:	fea43423          	sd	a0,-24(s0)
    if (!p) {
    800020cc:	fe843783          	ld	a5,-24(s0)
    800020d0:	eb89                	bnez	a5,800020e2 <sleep+0x32>
        panic("sleep: no proc");
    800020d2:	00004517          	auipc	a0,0x4
    800020d6:	00650513          	add	a0,a0,6 # 800060d8 <swtch+0x63c>
    800020da:	00004097          	auipc	ra,0x4
    800020de:	894080e7          	jalr	-1900(ra) # 8000596e <panic>
    }
    if (lk == NULL) {
    800020e2:	fd043783          	ld	a5,-48(s0)
    800020e6:	eb89                	bnez	a5,800020f8 <sleep+0x48>
        panic("sleep: null lk");
    800020e8:	00004517          	auipc	a0,0x4
    800020ec:	00050513          	mv	a0,a0
    800020f0:	00004097          	auipc	ra,0x4
    800020f4:	87e080e7          	jalr	-1922(ra) # 8000596e <panic>
    }

    if (lk != &p->lock) {
    800020f8:	fe843783          	ld	a5,-24(s0)
    800020fc:	fd043703          	ld	a4,-48(s0)
    80002100:	00f70f63          	beq	a4,a5,8000211e <sleep+0x6e>
        acquire(&p->lock);
    80002104:	fe843783          	ld	a5,-24(s0)
    80002108:	853e                	mv	a0,a5
    8000210a:	fffff097          	auipc	ra,0xfffff
    8000210e:	72a080e7          	jalr	1834(ra) # 80001834 <acquire>
        release(lk);
    80002112:	fd043503          	ld	a0,-48(s0)
    80002116:	fffff097          	auipc	ra,0xfffff
    8000211a:	752080e7          	jalr	1874(ra) # 80001868 <release>
    }
    p->chan = chan;
    8000211e:	fe843783          	ld	a5,-24(s0)
    80002122:	fd843703          	ld	a4,-40(s0)
    80002126:	ef98                	sd	a4,24(a5)
    p->state = PROC_SLEEPING;
    80002128:	fe843783          	ld	a5,-24(s0)
    8000212c:	4711                	li	a4,4
    8000212e:	cb98                	sw	a4,16(a5)
    p->time_slice = TIME_SLICE_TICKS;
    80002130:	fe843783          	ld	a5,-24(s0)
    80002134:	4715                	li	a4,5
    80002136:	cff8                	sw	a4,92(a5)
    p->need_resched = 0;
    80002138:	fe843783          	ld	a5,-24(s0)
    8000213c:	0607a023          	sw	zero,96(a5)
    sched();
    80002140:	00000097          	auipc	ra,0x0
    80002144:	e82080e7          	jalr	-382(ra) # 80001fc2 <sched>
    p->chan = NULL;
    80002148:	fe843783          	ld	a5,-24(s0)
    8000214c:	0007bc23          	sd	zero,24(a5)

    if (lk != &p->lock) {
    80002150:	fe843783          	ld	a5,-24(s0)
    80002154:	fd043703          	ld	a4,-48(s0)
    80002158:	02f70063          	beq	a4,a5,80002178 <sleep+0xc8>
        release(&p->lock);
    8000215c:	fe843783          	ld	a5,-24(s0)
    80002160:	853e                	mv	a0,a5
    80002162:	fffff097          	auipc	ra,0xfffff
    80002166:	706080e7          	jalr	1798(ra) # 80001868 <release>
        acquire(lk);
    8000216a:	fd043503          	ld	a0,-48(s0)
    8000216e:	fffff097          	auipc	ra,0xfffff
    80002172:	6c6080e7          	jalr	1734(ra) # 80001834 <acquire>
    } else {
        release(&p->lock);
    }
}
    80002176:	a801                	j	80002186 <sleep+0xd6>
        release(&p->lock);
    80002178:	fe843783          	ld	a5,-24(s0)
    8000217c:	853e                	mv	a0,a5
    8000217e:	fffff097          	auipc	ra,0xfffff
    80002182:	6ea080e7          	jalr	1770(ra) # 80001868 <release>
}
    80002186:	0001                	nop
    80002188:	70a2                	ld	ra,40(sp)
    8000218a:	7402                	ld	s0,32(sp)
    8000218c:	6145                	add	sp,sp,48
    8000218e:	8082                	ret

0000000080002190 <wakeup>:

void wakeup(void* chan) {
    80002190:	7179                	add	sp,sp,-48
    80002192:	f406                	sd	ra,40(sp)
    80002194:	f022                	sd	s0,32(sp)
    80002196:	1800                	add	s0,sp,48
    80002198:	fca43c23          	sd	a0,-40(s0)
    for (int i = 0; i < NPROC; i++) {
    8000219c:	fe042623          	sw	zero,-20(s0)
    800021a0:	a88d                	j	80002212 <wakeup+0x82>
        struct proc* p = &proc_table[i];
    800021a2:	fec42783          	lw	a5,-20(s0)
    800021a6:	00879713          	sll	a4,a5,0x8
    800021aa:	00005797          	auipc	a5,0x5
    800021ae:	d5678793          	add	a5,a5,-682 # 80006f00 <proc_table>
    800021b2:	97ba                	add	a5,a5,a4
    800021b4:	fef43023          	sd	a5,-32(s0)
        acquire(&p->lock);
    800021b8:	fe043783          	ld	a5,-32(s0)
    800021bc:	853e                	mv	a0,a5
    800021be:	fffff097          	auipc	ra,0xfffff
    800021c2:	676080e7          	jalr	1654(ra) # 80001834 <acquire>
        if (p->state == PROC_SLEEPING && p->chan == chan) {
    800021c6:	fe043783          	ld	a5,-32(s0)
    800021ca:	4b9c                	lw	a5,16(a5)
    800021cc:	873e                	mv	a4,a5
    800021ce:	4791                	li	a5,4
    800021d0:	02f71563          	bne	a4,a5,800021fa <wakeup+0x6a>
    800021d4:	fe043783          	ld	a5,-32(s0)
    800021d8:	6f9c                	ld	a5,24(a5)
    800021da:	fd843703          	ld	a4,-40(s0)
    800021de:	00f71e63          	bne	a4,a5,800021fa <wakeup+0x6a>
            p->state = PROC_RUNNABLE;
    800021e2:	fe043783          	ld	a5,-32(s0)
    800021e6:	4709                	li	a4,2
    800021e8:	cb98                	sw	a4,16(a5)
            p->time_slice = TIME_SLICE_TICKS;
    800021ea:	fe043783          	ld	a5,-32(s0)
    800021ee:	4715                	li	a4,5
    800021f0:	cff8                	sw	a4,92(a5)
            p->need_resched = 0;
    800021f2:	fe043783          	ld	a5,-32(s0)
    800021f6:	0607a023          	sw	zero,96(a5)
        }
        release(&p->lock);
    800021fa:	fe043783          	ld	a5,-32(s0)
    800021fe:	853e                	mv	a0,a5
    80002200:	fffff097          	auipc	ra,0xfffff
    80002204:	668080e7          	jalr	1640(ra) # 80001868 <release>
    for (int i = 0; i < NPROC; i++) {
    80002208:	fec42783          	lw	a5,-20(s0)
    8000220c:	2785                	addw	a5,a5,1
    8000220e:	fef42623          	sw	a5,-20(s0)
    80002212:	fec42783          	lw	a5,-20(s0)
    80002216:	0007871b          	sext.w	a4,a5
    8000221a:	03f00793          	li	a5,63
    8000221e:	f8e7d2e3          	bge	a5,a4,800021a2 <wakeup+0x12>
    }
}
    80002222:	0001                	nop
    80002224:	0001                	nop
    80002226:	70a2                	ld	ra,40(sp)
    80002228:	7402                	ld	s0,32(sp)
    8000222a:	6145                	add	sp,sp,48
    8000222c:	8082                	ret

000000008000222e <exit_process>:

void exit_process(int status) {
    8000222e:	7179                	add	sp,sp,-48
    80002230:	f406                	sd	ra,40(sp)
    80002232:	f022                	sd	s0,32(sp)
    80002234:	1800                	add	s0,sp,48
    80002236:	87aa                	mv	a5,a0
    80002238:	fcf42e23          	sw	a5,-36(s0)
    struct proc* p = myproc();
    8000223c:	00000097          	auipc	ra,0x0
    80002240:	d6e080e7          	jalr	-658(ra) # 80001faa <myproc>
    80002244:	fea43423          	sd	a0,-24(s0)
    if (!p) {
    80002248:	fe843783          	ld	a5,-24(s0)
    8000224c:	eb89                	bnez	a5,8000225e <exit_process+0x30>
        panic("exit with no proc");
    8000224e:	00004517          	auipc	a0,0x4
    80002252:	eaa50513          	add	a0,a0,-342 # 800060f8 <swtch+0x65c>
    80002256:	00003097          	auipc	ra,0x3
    8000225a:	718080e7          	jalr	1816(ra) # 8000596e <panic>
    }
    acquire(&p->lock);
    8000225e:	fe843783          	ld	a5,-24(s0)
    80002262:	853e                	mv	a0,a5
    80002264:	fffff097          	auipc	ra,0xfffff
    80002268:	5d0080e7          	jalr	1488(ra) # 80001834 <acquire>
    p->xstate = status;
    8000226c:	fe843783          	ld	a5,-24(s0)
    80002270:	fdc42703          	lw	a4,-36(s0)
    80002274:	d3d8                	sw	a4,36(a5)
    p->state = PROC_ZOMBIE;
    80002276:	fe843783          	ld	a5,-24(s0)
    8000227a:	4715                	li	a4,5
    8000227c:	cb98                	sw	a4,16(a5)
    wakeup(p->parent);
    8000227e:	fe843783          	ld	a5,-24(s0)
    80002282:	73fc                	ld	a5,224(a5)
    80002284:	853e                	mv	a0,a5
    80002286:	00000097          	auipc	ra,0x0
    8000228a:	f0a080e7          	jalr	-246(ra) # 80002190 <wakeup>
    sched();
    8000228e:	00000097          	auipc	ra,0x0
    80002292:	d34080e7          	jalr	-716(ra) # 80001fc2 <sched>
    panic("zombie exit");
    80002296:	00004517          	auipc	a0,0x4
    8000229a:	e7a50513          	add	a0,a0,-390 # 80006110 <swtch+0x674>
    8000229e:	00003097          	auipc	ra,0x3
    800022a2:	6d0080e7          	jalr	1744(ra) # 8000596e <panic>

00000000800022a6 <wait_process>:
}

int wait_process(int* status) {
    800022a6:	715d                	add	sp,sp,-80
    800022a8:	e486                	sd	ra,72(sp)
    800022aa:	e0a2                	sd	s0,64(sp)
    800022ac:	0880                	add	s0,sp,80
    800022ae:	faa43c23          	sd	a0,-72(s0)
    struct proc* cur = myproc();
    800022b2:	00000097          	auipc	ra,0x0
    800022b6:	cf8080e7          	jalr	-776(ra) # 80001faa <myproc>
    800022ba:	fca43c23          	sd	a0,-40(s0)
    for (;;) {
        for (int i = 0; i < NPROC; i++) {
    800022be:	fe042623          	sw	zero,-20(s0)
    800022c2:	a05d                	j	80002368 <wait_process+0xc2>
            struct proc* p = &proc_table[i];
    800022c4:	fec42783          	lw	a5,-20(s0)
    800022c8:	00879713          	sll	a4,a5,0x8
    800022cc:	00005797          	auipc	a5,0x5
    800022d0:	c3478793          	add	a5,a5,-972 # 80006f00 <proc_table>
    800022d4:	97ba                	add	a5,a5,a4
    800022d6:	fcf43823          	sd	a5,-48(s0)
            acquire(&p->lock);
    800022da:	fd043783          	ld	a5,-48(s0)
    800022de:	853e                	mv	a0,a5
    800022e0:	fffff097          	auipc	ra,0xfffff
    800022e4:	554080e7          	jalr	1364(ra) # 80001834 <acquire>
            if (p->parent != cur) {
    800022e8:	fd043783          	ld	a5,-48(s0)
    800022ec:	73fc                	ld	a5,224(a5)
    800022ee:	fd843703          	ld	a4,-40(s0)
    800022f2:	00f70a63          	beq	a4,a5,80002306 <wait_process+0x60>
                release(&p->lock);
    800022f6:	fd043783          	ld	a5,-48(s0)
    800022fa:	853e                	mv	a0,a5
    800022fc:	fffff097          	auipc	ra,0xfffff
    80002300:	56c080e7          	jalr	1388(ra) # 80001868 <release>
                continue;
    80002304:	a8a9                	j	8000235e <wait_process+0xb8>
            }
            if (p->state == PROC_ZOMBIE) {
    80002306:	fd043783          	ld	a5,-48(s0)
    8000230a:	4b9c                	lw	a5,16(a5)
    8000230c:	873e                	mv	a4,a5
    8000230e:	4795                	li	a5,5
    80002310:	04f71063          	bne	a4,a5,80002350 <wait_process+0xaa>
                int pid = p->pid;
    80002314:	fd043783          	ld	a5,-48(s0)
    80002318:	579c                	lw	a5,40(a5)
    8000231a:	fcf42623          	sw	a5,-52(s0)
                if (status) *status = p->xstate;
    8000231e:	fb843783          	ld	a5,-72(s0)
    80002322:	c799                	beqz	a5,80002330 <wait_process+0x8a>
    80002324:	fd043783          	ld	a5,-48(s0)
    80002328:	53d8                	lw	a4,36(a5)
    8000232a:	fb843783          	ld	a5,-72(s0)
    8000232e:	c398                	sw	a4,0(a5)
                free_process(p);
    80002330:	fd043503          	ld	a0,-48(s0)
    80002334:	00000097          	auipc	ra,0x0
    80002338:	822080e7          	jalr	-2014(ra) # 80001b56 <free_process>
                release(&p->lock);
    8000233c:	fd043783          	ld	a5,-48(s0)
    80002340:	853e                	mv	a0,a5
    80002342:	fffff097          	auipc	ra,0xfffff
    80002346:	526080e7          	jalr	1318(ra) # 80001868 <release>
                return pid;
    8000234a:	fcc42783          	lw	a5,-52(s0)
    8000234e:	a075                	j	800023fa <wait_process+0x154>
            }
            release(&p->lock);
    80002350:	fd043783          	ld	a5,-48(s0)
    80002354:	853e                	mv	a0,a5
    80002356:	fffff097          	auipc	ra,0xfffff
    8000235a:	512080e7          	jalr	1298(ra) # 80001868 <release>
        for (int i = 0; i < NPROC; i++) {
    8000235e:	fec42783          	lw	a5,-20(s0)
    80002362:	2785                	addw	a5,a5,1
    80002364:	fef42623          	sw	a5,-20(s0)
    80002368:	fec42783          	lw	a5,-20(s0)
    8000236c:	0007871b          	sext.w	a4,a5
    80002370:	03f00793          	li	a5,63
    80002374:	f4e7d8e3          	bge	a5,a4,800022c4 <wait_process+0x1e>
        }
        // No child exited yet; sleep to avoid busy waiting.
        acquire(&cur->lock);
    80002378:	fd843783          	ld	a5,-40(s0)
    8000237c:	853e                	mv	a0,a5
    8000237e:	fffff097          	auipc	ra,0xfffff
    80002382:	4b6080e7          	jalr	1206(ra) # 80001834 <acquire>
        int havekids = 0;
    80002386:	fe042423          	sw	zero,-24(s0)
        for (int i = 0; i < NPROC; i++) {
    8000238a:	fe042223          	sw	zero,-28(s0)
    8000238e:	a03d                	j	800023bc <wait_process+0x116>
            if (proc_table[i].parent == cur) {
    80002390:	00005717          	auipc	a4,0x5
    80002394:	b7070713          	add	a4,a4,-1168 # 80006f00 <proc_table>
    80002398:	fe442783          	lw	a5,-28(s0)
    8000239c:	07a2                	sll	a5,a5,0x8
    8000239e:	97ba                	add	a5,a5,a4
    800023a0:	73fc                	ld	a5,224(a5)
    800023a2:	fd843703          	ld	a4,-40(s0)
    800023a6:	00f71663          	bne	a4,a5,800023b2 <wait_process+0x10c>
                havekids = 1;
    800023aa:	4785                	li	a5,1
    800023ac:	fef42423          	sw	a5,-24(s0)
                break;
    800023b0:	a831                	j	800023cc <wait_process+0x126>
        for (int i = 0; i < NPROC; i++) {
    800023b2:	fe442783          	lw	a5,-28(s0)
    800023b6:	2785                	addw	a5,a5,1
    800023b8:	fef42223          	sw	a5,-28(s0)
    800023bc:	fe442783          	lw	a5,-28(s0)
    800023c0:	0007871b          	sext.w	a4,a5
    800023c4:	03f00793          	li	a5,63
    800023c8:	fce7d4e3          	bge	a5,a4,80002390 <wait_process+0xea>
            }
        }
        if (!havekids) {
    800023cc:	fe842783          	lw	a5,-24(s0)
    800023d0:	2781                	sext.w	a5,a5
    800023d2:	eb91                	bnez	a5,800023e6 <wait_process+0x140>
            release(&cur->lock);
    800023d4:	fd843783          	ld	a5,-40(s0)
    800023d8:	853e                	mv	a0,a5
    800023da:	fffff097          	auipc	ra,0xfffff
    800023de:	48e080e7          	jalr	1166(ra) # 80001868 <release>
            return -1;
    800023e2:	57fd                	li	a5,-1
    800023e4:	a819                	j	800023fa <wait_process+0x154>
        }
        sleep(cur, &cur->lock);
    800023e6:	fd843783          	ld	a5,-40(s0)
    800023ea:	85be                	mv	a1,a5
    800023ec:	fd843503          	ld	a0,-40(s0)
    800023f0:	00000097          	auipc	ra,0x0
    800023f4:	cc0080e7          	jalr	-832(ra) # 800020b0 <sleep>
    for (;;) {
    800023f8:	b5d9                	j	800022be <wait_process+0x18>
    }
}
    800023fa:	853e                	mv	a0,a5
    800023fc:	60a6                	ld	ra,72(sp)
    800023fe:	6406                	ld	s0,64(sp)
    80002400:	6161                	add	sp,sp,80
    80002402:	8082                	ret

0000000080002404 <age_runnable>:

static void age_runnable(uint64 now) {
    80002404:	7179                	add	sp,sp,-48
    80002406:	f406                	sd	ra,40(sp)
    80002408:	f022                	sd	s0,32(sp)
    8000240a:	1800                	add	s0,sp,48
    8000240c:	fca43c23          	sd	a0,-40(s0)
    if (now - last_aging_tick < SCHED_AGING_TICKS) {
    80002410:	00009797          	auipc	a5,0x9
    80002414:	b7878793          	add	a5,a5,-1160 # 8000af88 <last_aging_tick>
    80002418:	639c                	ld	a5,0(a5)
    8000241a:	fd843703          	ld	a4,-40(s0)
    8000241e:	8f1d                	sub	a4,a4,a5
    80002420:	0c700793          	li	a5,199
    80002424:	08e7f863          	bgeu	a5,a4,800024b4 <age_runnable+0xb0>
        return;
    }
    last_aging_tick = now;
    80002428:	00009797          	auipc	a5,0x9
    8000242c:	b6078793          	add	a5,a5,-1184 # 8000af88 <last_aging_tick>
    80002430:	fd843703          	ld	a4,-40(s0)
    80002434:	e398                	sd	a4,0(a5)
    for (int i = 0; i < NPROC; i++) {
    80002436:	fe042623          	sw	zero,-20(s0)
    8000243a:	a0a5                	j	800024a2 <age_runnable+0x9e>
        struct proc* p = &proc_table[i];
    8000243c:	fec42783          	lw	a5,-20(s0)
    80002440:	00879713          	sll	a4,a5,0x8
    80002444:	00005797          	auipc	a5,0x5
    80002448:	abc78793          	add	a5,a5,-1348 # 80006f00 <proc_table>
    8000244c:	97ba                	add	a5,a5,a4
    8000244e:	fef43023          	sd	a5,-32(s0)
        acquire(&p->lock);
    80002452:	fe043783          	ld	a5,-32(s0)
    80002456:	853e                	mv	a0,a5
    80002458:	fffff097          	auipc	ra,0xfffff
    8000245c:	3dc080e7          	jalr	988(ra) # 80001834 <acquire>
        if (p->state == PROC_RUNNABLE && p->priority > PRIORITY_MIN) {
    80002460:	fe043783          	ld	a5,-32(s0)
    80002464:	4b9c                	lw	a5,16(a5)
    80002466:	873e                	mv	a4,a5
    80002468:	4789                	li	a5,2
    8000246a:	02f71063          	bne	a4,a5,8000248a <age_runnable+0x86>
    8000246e:	fe043783          	ld	a5,-32(s0)
    80002472:	4fbc                	lw	a5,88(a5)
    80002474:	00f05b63          	blez	a5,8000248a <age_runnable+0x86>
            p->priority--;
    80002478:	fe043783          	ld	a5,-32(s0)
    8000247c:	4fbc                	lw	a5,88(a5)
    8000247e:	37fd                	addw	a5,a5,-1
    80002480:	0007871b          	sext.w	a4,a5
    80002484:	fe043783          	ld	a5,-32(s0)
    80002488:	cfb8                	sw	a4,88(a5)
        }
        release(&p->lock);
    8000248a:	fe043783          	ld	a5,-32(s0)
    8000248e:	853e                	mv	a0,a5
    80002490:	fffff097          	auipc	ra,0xfffff
    80002494:	3d8080e7          	jalr	984(ra) # 80001868 <release>
    for (int i = 0; i < NPROC; i++) {
    80002498:	fec42783          	lw	a5,-20(s0)
    8000249c:	2785                	addw	a5,a5,1
    8000249e:	fef42623          	sw	a5,-20(s0)
    800024a2:	fec42783          	lw	a5,-20(s0)
    800024a6:	0007871b          	sext.w	a4,a5
    800024aa:	03f00793          	li	a5,63
    800024ae:	f8e7d7e3          	bge	a5,a4,8000243c <age_runnable+0x38>
    800024b2:	a011                	j	800024b6 <age_runnable+0xb2>
        return;
    800024b4:	0001                	nop
    }
}
    800024b6:	70a2                	ld	ra,40(sp)
    800024b8:	7402                	ld	s0,32(sp)
    800024ba:	6145                	add	sp,sp,48
    800024bc:	8082                	ret

00000000800024be <pick_runnable>:

static struct proc* pick_runnable(uint64 now) {
    800024be:	711d                	add	sp,sp,-96
    800024c0:	ec86                	sd	ra,88(sp)
    800024c2:	e8a2                	sd	s0,80(sp)
    800024c4:	1080                	add	s0,sp,96
    800024c6:	faa43423          	sd	a0,-88(s0)
    struct proc* best = NULL;
    800024ca:	fe043423          	sd	zero,-24(s0)
    int best_pri = 0x7fffffff;
    800024ce:	800007b7          	lui	a5,0x80000
    800024d2:	fff7c793          	not	a5,a5
    800024d6:	fef42223          	sw	a5,-28(s0)
    uint64 best_stamp = 0;
    800024da:	fc043c23          	sd	zero,-40(s0)

    for (int i = 0; i < NPROC; i++) {
    800024de:	fc042a23          	sw	zero,-44(s0)
    800024e2:	a0d1                	j	800025a6 <pick_runnable+0xe8>
        struct proc* p = &proc_table[i];
    800024e4:	fd442783          	lw	a5,-44(s0)
    800024e8:	00879713          	sll	a4,a5,0x8
    800024ec:	00005797          	auipc	a5,0x5
    800024f0:	a1478793          	add	a5,a5,-1516 # 80006f00 <proc_table>
    800024f4:	97ba                	add	a5,a5,a4
    800024f6:	fcf43423          	sd	a5,-56(s0)
        acquire(&p->lock);
    800024fa:	fc843783          	ld	a5,-56(s0)
    800024fe:	853e                	mv	a0,a5
    80002500:	fffff097          	auipc	ra,0xfffff
    80002504:	334080e7          	jalr	820(ra) # 80001834 <acquire>
        if (p->state == PROC_RUNNABLE) {
    80002508:	fc843783          	ld	a5,-56(s0)
    8000250c:	4b9c                	lw	a5,16(a5)
    8000250e:	873e                	mv	a4,a5
    80002510:	4789                	li	a5,2
    80002512:	06f71e63          	bne	a4,a5,8000258e <pick_runnable+0xd0>
            int pri = p->priority;
    80002516:	fc843783          	ld	a5,-56(s0)
    8000251a:	4fbc                	lw	a5,88(a5)
    8000251c:	fcf42223          	sw	a5,-60(s0)
            uint64 stamp = p->last_scheduled;
    80002520:	fc843783          	ld	a5,-56(s0)
    80002524:	6bbc                	ld	a5,80(a5)
    80002526:	faf43c23          	sd	a5,-72(s0)
            if (!best || pri < best_pri || (pri == best_pri && stamp <= best_stamp)) {
    8000252a:	fe843783          	ld	a5,-24(s0)
    8000252e:	cb8d                	beqz	a5,80002560 <pick_runnable+0xa2>
    80002530:	fc442783          	lw	a5,-60(s0)
    80002534:	873e                	mv	a4,a5
    80002536:	fe442783          	lw	a5,-28(s0)
    8000253a:	2701                	sext.w	a4,a4
    8000253c:	2781                	sext.w	a5,a5
    8000253e:	02f74163          	blt	a4,a5,80002560 <pick_runnable+0xa2>
    80002542:	fc442783          	lw	a5,-60(s0)
    80002546:	873e                	mv	a4,a5
    80002548:	fe442783          	lw	a5,-28(s0)
    8000254c:	2701                	sext.w	a4,a4
    8000254e:	2781                	sext.w	a5,a5
    80002550:	02f71f63          	bne	a4,a5,8000258e <pick_runnable+0xd0>
    80002554:	fb843703          	ld	a4,-72(s0)
    80002558:	fd843783          	ld	a5,-40(s0)
    8000255c:	02e7e963          	bltu	a5,a4,8000258e <pick_runnable+0xd0>
                if (best) {
    80002560:	fe843783          	ld	a5,-24(s0)
    80002564:	cb81                	beqz	a5,80002574 <pick_runnable+0xb6>
                    release(&best->lock);
    80002566:	fe843783          	ld	a5,-24(s0)
    8000256a:	853e                	mv	a0,a5
    8000256c:	fffff097          	auipc	ra,0xfffff
    80002570:	2fc080e7          	jalr	764(ra) # 80001868 <release>
                }
                best = p;
    80002574:	fc843783          	ld	a5,-56(s0)
    80002578:	fef43423          	sd	a5,-24(s0)
                best_pri = pri;
    8000257c:	fc442783          	lw	a5,-60(s0)
    80002580:	fef42223          	sw	a5,-28(s0)
                best_stamp = stamp;
    80002584:	fb843783          	ld	a5,-72(s0)
    80002588:	fcf43c23          	sd	a5,-40(s0)
                continue;
    8000258c:	a801                	j	8000259c <pick_runnable+0xde>
            }
        }
        release(&p->lock);
    8000258e:	fc843783          	ld	a5,-56(s0)
    80002592:	853e                	mv	a0,a5
    80002594:	fffff097          	auipc	ra,0xfffff
    80002598:	2d4080e7          	jalr	724(ra) # 80001868 <release>
    for (int i = 0; i < NPROC; i++) {
    8000259c:	fd442783          	lw	a5,-44(s0)
    800025a0:	2785                	addw	a5,a5,1
    800025a2:	fcf42a23          	sw	a5,-44(s0)
    800025a6:	fd442783          	lw	a5,-44(s0)
    800025aa:	0007871b          	sext.w	a4,a5
    800025ae:	03f00793          	li	a5,63
    800025b2:	f2e7d9e3          	bge	a5,a4,800024e4 <pick_runnable+0x26>
    }
    return best;
    800025b6:	fe843783          	ld	a5,-24(s0)
}
    800025ba:	853e                	mv	a0,a5
    800025bc:	60e6                	ld	ra,88(sp)
    800025be:	6446                	ld	s0,80(sp)
    800025c0:	6125                	add	sp,sp,96
    800025c2:	8082                	ret

00000000800025c4 <reap_zombies>:

static void reap_zombies(void) {
    800025c4:	1101                	add	sp,sp,-32
    800025c6:	ec06                	sd	ra,24(sp)
    800025c8:	e822                	sd	s0,16(sp)
    800025ca:	1000                	add	s0,sp,32
    for (int i = 0; i < NPROC; i++) {
    800025cc:	fe042623          	sw	zero,-20(s0)
    800025d0:	a885                	j	80002640 <reap_zombies+0x7c>
        struct proc* p = &proc_table[i];
    800025d2:	fec42783          	lw	a5,-20(s0)
    800025d6:	00879713          	sll	a4,a5,0x8
    800025da:	00005797          	auipc	a5,0x5
    800025de:	92678793          	add	a5,a5,-1754 # 80006f00 <proc_table>
    800025e2:	97ba                	add	a5,a5,a4
    800025e4:	fef43023          	sd	a5,-32(s0)
        acquire(&p->lock);
    800025e8:	fe043783          	ld	a5,-32(s0)
    800025ec:	853e                	mv	a0,a5
    800025ee:	fffff097          	auipc	ra,0xfffff
    800025f2:	246080e7          	jalr	582(ra) # 80001834 <acquire>
        if (p->state == PROC_ZOMBIE && p->parent == NULL) {
    800025f6:	fe043783          	ld	a5,-32(s0)
    800025fa:	4b9c                	lw	a5,16(a5)
    800025fc:	873e                	mv	a4,a5
    800025fe:	4795                	li	a5,5
    80002600:	02f71463          	bne	a4,a5,80002628 <reap_zombies+0x64>
    80002604:	fe043783          	ld	a5,-32(s0)
    80002608:	73fc                	ld	a5,224(a5)
    8000260a:	ef99                	bnez	a5,80002628 <reap_zombies+0x64>
            free_process(p);
    8000260c:	fe043503          	ld	a0,-32(s0)
    80002610:	fffff097          	auipc	ra,0xfffff
    80002614:	546080e7          	jalr	1350(ra) # 80001b56 <free_process>
            release(&p->lock);
    80002618:	fe043783          	ld	a5,-32(s0)
    8000261c:	853e                	mv	a0,a5
    8000261e:	fffff097          	auipc	ra,0xfffff
    80002622:	24a080e7          	jalr	586(ra) # 80001868 <release>
            continue;
    80002626:	a801                	j	80002636 <reap_zombies+0x72>
        }
        release(&p->lock);
    80002628:	fe043783          	ld	a5,-32(s0)
    8000262c:	853e                	mv	a0,a5
    8000262e:	fffff097          	auipc	ra,0xfffff
    80002632:	23a080e7          	jalr	570(ra) # 80001868 <release>
    for (int i = 0; i < NPROC; i++) {
    80002636:	fec42783          	lw	a5,-20(s0)
    8000263a:	2785                	addw	a5,a5,1
    8000263c:	fef42623          	sw	a5,-20(s0)
    80002640:	fec42783          	lw	a5,-20(s0)
    80002644:	0007871b          	sext.w	a4,a5
    80002648:	03f00793          	li	a5,63
    8000264c:	f8e7d3e3          	bge	a5,a4,800025d2 <reap_zombies+0xe>
    }
}
    80002650:	0001                	nop
    80002652:	0001                	nop
    80002654:	60e2                	ld	ra,24(sp)
    80002656:	6442                	ld	s0,16(sp)
    80002658:	6105                	add	sp,sp,32
    8000265a:	8082                	ret

000000008000265c <scheduler>:

void scheduler(void) {
    8000265c:	1101                	add	sp,sp,-32
    8000265e:	ec06                	sd	ra,24(sp)
    80002660:	e822                	sd	s0,16(sp)
    80002662:	1000                	add	s0,sp,32
    for (;;) {
        intr_on();
    80002664:	fffff097          	auipc	ra,0xfffff
    80002668:	338080e7          	jalr	824(ra) # 8000199c <intr_on>
        uint64 now = timer_ticks();
    8000266c:	00002097          	auipc	ra,0x2
    80002670:	9e0080e7          	jalr	-1568(ra) # 8000404c <timer_ticks>
    80002674:	fea43423          	sd	a0,-24(s0)
        age_runnable(now);
    80002678:	fe843503          	ld	a0,-24(s0)
    8000267c:	00000097          	auipc	ra,0x0
    80002680:	d88080e7          	jalr	-632(ra) # 80002404 <age_runnable>
        reap_zombies();
    80002684:	00000097          	auipc	ra,0x0
    80002688:	f40080e7          	jalr	-192(ra) # 800025c4 <reap_zombies>

        struct proc* p = pick_runnable(now);
    8000268c:	fe843503          	ld	a0,-24(s0)
    80002690:	00000097          	auipc	ra,0x0
    80002694:	e2e080e7          	jalr	-466(ra) # 800024be <pick_runnable>
    80002698:	fea43023          	sd	a0,-32(s0)
        if (p != NULL) {
    8000269c:	fe043783          	ld	a5,-32(s0)
    800026a0:	c7a5                	beqz	a5,80002708 <scheduler+0xac>
            p->state = PROC_RUNNING;
    800026a2:	fe043783          	ld	a5,-32(s0)
    800026a6:	470d                	li	a4,3
    800026a8:	cb98                	sw	a4,16(a5)
            p->time_slice = TIME_SLICE_TICKS;
    800026aa:	fe043783          	ld	a5,-32(s0)
    800026ae:	4715                	li	a4,5
    800026b0:	cff8                	sw	a4,92(a5)
            p->need_resched = 0;
    800026b2:	fe043783          	ld	a5,-32(s0)
    800026b6:	0607a023          	sw	zero,96(a5)
            p->last_scheduled = now;
    800026ba:	fe043783          	ld	a5,-32(s0)
    800026be:	fe843703          	ld	a4,-24(s0)
    800026c2:	ebb8                	sd	a4,80(a5)
            current_proc = p;
    800026c4:	00009797          	auipc	a5,0x9
    800026c8:	83c78793          	add	a5,a5,-1988 # 8000af00 <current_proc>
    800026cc:	fe043703          	ld	a4,-32(s0)
    800026d0:	e398                	sd	a4,0(a5)
            swtch(&scheduler_ctx, &p->ctx);
    800026d2:	fe043783          	ld	a5,-32(s0)
    800026d6:	07078793          	add	a5,a5,112
    800026da:	85be                	mv	a1,a5
    800026dc:	00009517          	auipc	a0,0x9
    800026e0:	83c50513          	add	a0,a0,-1988 # 8000af18 <scheduler_ctx>
    800026e4:	00003097          	auipc	ra,0x3
    800026e8:	3b8080e7          	jalr	952(ra) # 80005a9c <swtch>
            current_proc = NULL;
    800026ec:	00009797          	auipc	a5,0x9
    800026f0:	81478793          	add	a5,a5,-2028 # 8000af00 <current_proc>
    800026f4:	0007b023          	sd	zero,0(a5)
            release(&p->lock);
    800026f8:	fe043783          	ld	a5,-32(s0)
    800026fc:	853e                	mv	a0,a5
    800026fe:	fffff097          	auipc	ra,0xfffff
    80002702:	16a080e7          	jalr	362(ra) # 80001868 <release>
    80002706:	bfb9                	j	80002664 <scheduler+0x8>
        } else {
            // idle: halt a bit to avoid busy looping
            asm volatile("wfi");
    80002708:	10500073          	wfi
    for (;;) {
    8000270c:	bfa1                	j	80002664 <scheduler+0x8>

000000008000270e <proc_on_tick>:
        }
    }
}

void proc_on_tick(void) {
    8000270e:	1101                	add	sp,sp,-32
    80002710:	ec06                	sd	ra,24(sp)
    80002712:	e822                	sd	s0,16(sp)
    80002714:	1000                	add	s0,sp,32
    struct proc* p = myproc();
    80002716:	00000097          	auipc	ra,0x0
    8000271a:	894080e7          	jalr	-1900(ra) # 80001faa <myproc>
    8000271e:	fea43423          	sd	a0,-24(s0)
    if (!p) return;
    80002722:	fe843783          	ld	a5,-24(s0)
    80002726:	cfb1                	beqz	a5,80002782 <proc_on_tick+0x74>
    acquire(&p->lock);
    80002728:	fe843783          	ld	a5,-24(s0)
    8000272c:	853e                	mv	a0,a5
    8000272e:	fffff097          	auipc	ra,0xfffff
    80002732:	106080e7          	jalr	262(ra) # 80001834 <acquire>
    p->runtime_ticks++;
    80002736:	fe843783          	ld	a5,-24(s0)
    8000273a:	67bc                	ld	a5,72(a5)
    8000273c:	00178713          	add	a4,a5,1
    80002740:	fe843783          	ld	a5,-24(s0)
    80002744:	e7b8                	sd	a4,72(a5)
    if (p->time_slice > 0) {
    80002746:	fe843783          	ld	a5,-24(s0)
    8000274a:	4ffc                	lw	a5,92(a5)
    8000274c:	02f05363          	blez	a5,80002772 <proc_on_tick+0x64>
        p->time_slice--;
    80002750:	fe843783          	ld	a5,-24(s0)
    80002754:	4ffc                	lw	a5,92(a5)
    80002756:	37fd                	addw	a5,a5,-1
    80002758:	0007871b          	sext.w	a4,a5
    8000275c:	fe843783          	ld	a5,-24(s0)
    80002760:	cff8                	sw	a4,92(a5)
        if (p->time_slice == 0) {
    80002762:	fe843783          	ld	a5,-24(s0)
    80002766:	4ffc                	lw	a5,92(a5)
    80002768:	e789                	bnez	a5,80002772 <proc_on_tick+0x64>
            p->need_resched = 1;
    8000276a:	fe843783          	ld	a5,-24(s0)
    8000276e:	4705                	li	a4,1
    80002770:	d3b8                	sw	a4,96(a5)
        }
    }
    release(&p->lock);
    80002772:	fe843783          	ld	a5,-24(s0)
    80002776:	853e                	mv	a0,a5
    80002778:	fffff097          	auipc	ra,0xfffff
    8000277c:	0f0080e7          	jalr	240(ra) # 80001868 <release>
    80002780:	a011                	j	80002784 <proc_on_tick+0x76>
    if (!p) return;
    80002782:	0001                	nop
}
    80002784:	60e2                	ld	ra,24(sp)
    80002786:	6442                	ld	s0,16(sp)
    80002788:	6105                	add	sp,sp,32
    8000278a:	8082                	ret

000000008000278c <set_proc_priority>:

int set_proc_priority(int pid, int new_priority) {
    8000278c:	7179                	add	sp,sp,-48
    8000278e:	f406                	sd	ra,40(sp)
    80002790:	f022                	sd	s0,32(sp)
    80002792:	1800                	add	s0,sp,48
    80002794:	87aa                	mv	a5,a0
    80002796:	872e                	mv	a4,a1
    80002798:	fcf42e23          	sw	a5,-36(s0)
    8000279c:	87ba                	mv	a5,a4
    8000279e:	fcf42c23          	sw	a5,-40(s0)
    if (new_priority < PRIORITY_MIN) {
    800027a2:	fd842783          	lw	a5,-40(s0)
    800027a6:	2781                	sext.w	a5,a5
    800027a8:	0007d463          	bgez	a5,800027b0 <set_proc_priority+0x24>
        new_priority = PRIORITY_MIN;
    800027ac:	fc042c23          	sw	zero,-40(s0)
    }
    for (int i = 0; i < NPROC; i++) {
    800027b0:	fe042623          	sw	zero,-20(s0)
    800027b4:	a8ad                	j	8000282e <set_proc_priority+0xa2>
        struct proc* p = &proc_table[i];
    800027b6:	fec42783          	lw	a5,-20(s0)
    800027ba:	00879713          	sll	a4,a5,0x8
    800027be:	00004797          	auipc	a5,0x4
    800027c2:	74278793          	add	a5,a5,1858 # 80006f00 <proc_table>
    800027c6:	97ba                	add	a5,a5,a4
    800027c8:	fef43023          	sd	a5,-32(s0)
        acquire(&p->lock);
    800027cc:	fe043783          	ld	a5,-32(s0)
    800027d0:	853e                	mv	a0,a5
    800027d2:	fffff097          	auipc	ra,0xfffff
    800027d6:	062080e7          	jalr	98(ra) # 80001834 <acquire>
        if (p->pid == pid && p->state != PROC_UNUSED) {
    800027da:	fe043783          	ld	a5,-32(s0)
    800027de:	5798                	lw	a4,40(a5)
    800027e0:	fdc42783          	lw	a5,-36(s0)
    800027e4:	2781                	sext.w	a5,a5
    800027e6:	02e79863          	bne	a5,a4,80002816 <set_proc_priority+0x8a>
    800027ea:	fe043783          	ld	a5,-32(s0)
    800027ee:	4b9c                	lw	a5,16(a5)
    800027f0:	c39d                	beqz	a5,80002816 <set_proc_priority+0x8a>
            p->priority = new_priority;
    800027f2:	fe043783          	ld	a5,-32(s0)
    800027f6:	fd842703          	lw	a4,-40(s0)
    800027fa:	cfb8                	sw	a4,88(a5)
            p->time_slice = TIME_SLICE_TICKS;
    800027fc:	fe043783          	ld	a5,-32(s0)
    80002800:	4715                	li	a4,5
    80002802:	cff8                	sw	a4,92(a5)
            release(&p->lock);
    80002804:	fe043783          	ld	a5,-32(s0)
    80002808:	853e                	mv	a0,a5
    8000280a:	fffff097          	auipc	ra,0xfffff
    8000280e:	05e080e7          	jalr	94(ra) # 80001868 <release>
            return 0;
    80002812:	4781                	li	a5,0
    80002814:	a035                	j	80002840 <set_proc_priority+0xb4>
        }
        release(&p->lock);
    80002816:	fe043783          	ld	a5,-32(s0)
    8000281a:	853e                	mv	a0,a5
    8000281c:	fffff097          	auipc	ra,0xfffff
    80002820:	04c080e7          	jalr	76(ra) # 80001868 <release>
    for (int i = 0; i < NPROC; i++) {
    80002824:	fec42783          	lw	a5,-20(s0)
    80002828:	2785                	addw	a5,a5,1
    8000282a:	fef42623          	sw	a5,-20(s0)
    8000282e:	fec42783          	lw	a5,-20(s0)
    80002832:	0007871b          	sext.w	a4,a5
    80002836:	03f00793          	li	a5,63
    8000283a:	f6e7dee3          	bge	a5,a4,800027b6 <set_proc_priority+0x2a>
    }
    return -1;
    8000283e:	57fd                	li	a5,-1
}
    80002840:	853e                	mv	a0,a5
    80002842:	70a2                	ld	ra,40(sp)
    80002844:	7402                	ld	s0,32(sp)
    80002846:	6145                	add	sp,sp,48
    80002848:	8082                	ret

000000008000284a <procdump>:

void procdump(void) {
    8000284a:	1101                	add	sp,sp,-32
    8000284c:	ec06                	sd	ra,24(sp)
    8000284e:	e822                	sd	s0,16(sp)
    80002850:	1000                	add	s0,sp,32
    printf("[proc] dump\n");
    80002852:	00004517          	auipc	a0,0x4
    80002856:	8ce50513          	add	a0,a0,-1842 # 80006120 <swtch+0x684>
    8000285a:	00003097          	auipc	ra,0x3
    8000285e:	07c080e7          	jalr	124(ra) # 800058d6 <printf>
    for (int i = 0; i < NPROC; i++) {
    80002862:	fe042623          	sw	zero,-20(s0)
    80002866:	a041                	j	800028e6 <procdump+0x9c>
        struct proc* p = &proc_table[i];
    80002868:	fec42783          	lw	a5,-20(s0)
    8000286c:	00879713          	sll	a4,a5,0x8
    80002870:	00004797          	auipc	a5,0x4
    80002874:	69078793          	add	a5,a5,1680 # 80006f00 <proc_table>
    80002878:	97ba                	add	a5,a5,a4
    8000287a:	fef43023          	sd	a5,-32(s0)
        acquire(&p->lock);
    8000287e:	fe043783          	ld	a5,-32(s0)
    80002882:	853e                	mv	a0,a5
    80002884:	fffff097          	auipc	ra,0xfffff
    80002888:	fb0080e7          	jalr	-80(ra) # 80001834 <acquire>
        if (p->state != PROC_UNUSED) {
    8000288c:	fe043783          	ld	a5,-32(s0)
    80002890:	4b9c                	lw	a5,16(a5)
    80002892:	cf95                	beqz	a5,800028ce <procdump+0x84>
            printf(" pid=%d state=%d prio=%d slice=%d run=%lu name=%s\n",
    80002894:	fe043783          	ld	a5,-32(s0)
    80002898:	578c                	lw	a1,40(a5)
                   p->pid, p->state, p->priority, p->time_slice,
    8000289a:	fe043783          	ld	a5,-32(s0)
    8000289e:	4b90                	lw	a2,16(a5)
            printf(" pid=%d state=%d prio=%d slice=%d run=%lu name=%s\n",
    800028a0:	fe043783          	ld	a5,-32(s0)
    800028a4:	4fb4                	lw	a3,88(a5)
    800028a6:	fe043783          	ld	a5,-32(s0)
    800028aa:	4ff8                	lw	a4,92(a5)
    800028ac:	fe043783          	ld	a5,-32(s0)
    800028b0:	67a8                	ld	a0,72(a5)
                   p->runtime_ticks, p->name);
    800028b2:	fe043783          	ld	a5,-32(s0)
    800028b6:	0f078793          	add	a5,a5,240
            printf(" pid=%d state=%d prio=%d slice=%d run=%lu name=%s\n",
    800028ba:	883e                	mv	a6,a5
    800028bc:	87aa                	mv	a5,a0
    800028be:	00004517          	auipc	a0,0x4
    800028c2:	87250513          	add	a0,a0,-1934 # 80006130 <swtch+0x694>
    800028c6:	00003097          	auipc	ra,0x3
    800028ca:	010080e7          	jalr	16(ra) # 800058d6 <printf>
        }
        release(&p->lock);
    800028ce:	fe043783          	ld	a5,-32(s0)
    800028d2:	853e                	mv	a0,a5
    800028d4:	fffff097          	auipc	ra,0xfffff
    800028d8:	f94080e7          	jalr	-108(ra) # 80001868 <release>
    for (int i = 0; i < NPROC; i++) {
    800028dc:	fec42783          	lw	a5,-20(s0)
    800028e0:	2785                	addw	a5,a5,1
    800028e2:	fef42623          	sw	a5,-20(s0)
    800028e6:	fec42783          	lw	a5,-20(s0)
    800028ea:	0007871b          	sext.w	a4,a5
    800028ee:	03f00793          	li	a5,63
    800028f2:	f6e7dbe3          	bge	a5,a4,80002868 <procdump+0x1e>
    }
}
    800028f6:	0001                	nop
    800028f8:	0001                	nop
    800028fa:	60e2                	ld	ra,24(sp)
    800028fc:	6442                	ld	s0,16(sp)
    800028fe:	6105                	add	sp,sp,32
    80002900:	8082                	ret

0000000080002902 <kill_process>:

int kill_process(int pid) {
    80002902:	7179                	add	sp,sp,-48
    80002904:	f406                	sd	ra,40(sp)
    80002906:	f022                	sd	s0,32(sp)
    80002908:	1800                	add	s0,sp,48
    8000290a:	87aa                	mv	a5,a0
    8000290c:	fcf42e23          	sw	a5,-36(s0)
    for (int i = 0; i < NPROC; i++) {
    80002910:	fe042623          	sw	zero,-20(s0)
    80002914:	a879                	j	800029b2 <kill_process+0xb0>
        struct proc* p = &proc_table[i];
    80002916:	fec42783          	lw	a5,-20(s0)
    8000291a:	00879713          	sll	a4,a5,0x8
    8000291e:	00004797          	auipc	a5,0x4
    80002922:	5e278793          	add	a5,a5,1506 # 80006f00 <proc_table>
    80002926:	97ba                	add	a5,a5,a4
    80002928:	fef43023          	sd	a5,-32(s0)
        acquire(&p->lock);
    8000292c:	fe043783          	ld	a5,-32(s0)
    80002930:	853e                	mv	a0,a5
    80002932:	fffff097          	auipc	ra,0xfffff
    80002936:	f02080e7          	jalr	-254(ra) # 80001834 <acquire>
        if (p->pid == pid && p->state != PROC_UNUSED) {
    8000293a:	fe043783          	ld	a5,-32(s0)
    8000293e:	5798                	lw	a4,40(a5)
    80002940:	fdc42783          	lw	a5,-36(s0)
    80002944:	2781                	sext.w	a5,a5
    80002946:	04e79a63          	bne	a5,a4,8000299a <kill_process+0x98>
    8000294a:	fe043783          	ld	a5,-32(s0)
    8000294e:	4b9c                	lw	a5,16(a5)
    80002950:	c7a9                	beqz	a5,8000299a <kill_process+0x98>
            p->killed = 1;
    80002952:	fe043783          	ld	a5,-32(s0)
    80002956:	4705                	li	a4,1
    80002958:	d398                	sw	a4,32(a5)
            if (p->state == PROC_SLEEPING) {
    8000295a:	fe043783          	ld	a5,-32(s0)
    8000295e:	4b9c                	lw	a5,16(a5)
    80002960:	873e                	mv	a4,a5
    80002962:	4791                	li	a5,4
    80002964:	02f71263          	bne	a4,a5,80002988 <kill_process+0x86>
                p->state = PROC_RUNNABLE;
    80002968:	fe043783          	ld	a5,-32(s0)
    8000296c:	4709                	li	a4,2
    8000296e:	cb98                	sw	a4,16(a5)
                p->chan = NULL;
    80002970:	fe043783          	ld	a5,-32(s0)
    80002974:	0007bc23          	sd	zero,24(a5)
                p->time_slice = TIME_SLICE_TICKS;
    80002978:	fe043783          	ld	a5,-32(s0)
    8000297c:	4715                	li	a4,5
    8000297e:	cff8                	sw	a4,92(a5)
                p->need_resched = 0;
    80002980:	fe043783          	ld	a5,-32(s0)
    80002984:	0607a023          	sw	zero,96(a5)
            }
            release(&p->lock);
    80002988:	fe043783          	ld	a5,-32(s0)
    8000298c:	853e                	mv	a0,a5
    8000298e:	fffff097          	auipc	ra,0xfffff
    80002992:	eda080e7          	jalr	-294(ra) # 80001868 <release>
            return 0;
    80002996:	4781                	li	a5,0
    80002998:	a035                	j	800029c4 <kill_process+0xc2>
        }
        release(&p->lock);
    8000299a:	fe043783          	ld	a5,-32(s0)
    8000299e:	853e                	mv	a0,a5
    800029a0:	fffff097          	auipc	ra,0xfffff
    800029a4:	ec8080e7          	jalr	-312(ra) # 80001868 <release>
    for (int i = 0; i < NPROC; i++) {
    800029a8:	fec42783          	lw	a5,-20(s0)
    800029ac:	2785                	addw	a5,a5,1
    800029ae:	fef42623          	sw	a5,-20(s0)
    800029b2:	fec42783          	lw	a5,-20(s0)
    800029b6:	0007871b          	sext.w	a4,a5
    800029ba:	03f00793          	li	a5,63
    800029be:	f4e7dce3          	bge	a5,a4,80002916 <kill_process+0x14>
    }
    return -1;
    800029c2:	57fd                	li	a5,-1
}
    800029c4:	853e                	mv	a0,a5
    800029c6:	70a2                	ld	ra,40(sp)
    800029c8:	7402                	ld	s0,32(sp)
    800029ca:	6145                	add	sp,sp,48
    800029cc:	8082                	ret

00000000800029ce <simple_task_a>:
#include "include/proc.h"
#include "include/test.h"
#include "include/syscall.h"
#include "include/trap.h"

static void simple_task_a(void) {
    800029ce:	1101                	add	sp,sp,-32
    800029d0:	ec06                	sd	ra,24(sp)
    800029d2:	e822                	sd	s0,16(sp)
    800029d4:	1000                	add	s0,sp,32
    for (int i = 0; i < 3; i++) {
    800029d6:	fe042623          	sw	zero,-20(s0)
    800029da:	a02d                	j	80002a04 <simple_task_a+0x36>
        printf("[proc] task A iter %d\n", i);
    800029dc:	fec42783          	lw	a5,-20(s0)
    800029e0:	85be                	mv	a1,a5
    800029e2:	00003517          	auipc	a0,0x3
    800029e6:	78650513          	add	a0,a0,1926 # 80006168 <swtch+0x6cc>
    800029ea:	00003097          	auipc	ra,0x3
    800029ee:	eec080e7          	jalr	-276(ra) # 800058d6 <printf>
        yield();
    800029f2:	fffff097          	auipc	ra,0xfffff
    800029f6:	65c080e7          	jalr	1628(ra) # 8000204e <yield>
    for (int i = 0; i < 3; i++) {
    800029fa:	fec42783          	lw	a5,-20(s0)
    800029fe:	2785                	addw	a5,a5,1
    80002a00:	fef42623          	sw	a5,-20(s0)
    80002a04:	fec42783          	lw	a5,-20(s0)
    80002a08:	0007871b          	sext.w	a4,a5
    80002a0c:	4789                	li	a5,2
    80002a0e:	fce7d7e3          	bge	a5,a4,800029dc <simple_task_a+0xe>
    }
    printf("[proc] task A exit\n");
    80002a12:	00003517          	auipc	a0,0x3
    80002a16:	76e50513          	add	a0,a0,1902 # 80006180 <swtch+0x6e4>
    80002a1a:	00003097          	auipc	ra,0x3
    80002a1e:	ebc080e7          	jalr	-324(ra) # 800058d6 <printf>
    exit_process(0);
    80002a22:	4501                	li	a0,0
    80002a24:	00000097          	auipc	ra,0x0
    80002a28:	80a080e7          	jalr	-2038(ra) # 8000222e <exit_process>

0000000080002a2c <simple_task_b>:
}

static void simple_task_b(void) {
    80002a2c:	1101                	add	sp,sp,-32
    80002a2e:	ec06                	sd	ra,24(sp)
    80002a30:	e822                	sd	s0,16(sp)
    80002a32:	1000                	add	s0,sp,32
    for (int i = 0; i < 2; i++) {
    80002a34:	fe042623          	sw	zero,-20(s0)
    80002a38:	a02d                	j	80002a62 <simple_task_b+0x36>
        printf("[proc] task B iter %d\n", i);
    80002a3a:	fec42783          	lw	a5,-20(s0)
    80002a3e:	85be                	mv	a1,a5
    80002a40:	00003517          	auipc	a0,0x3
    80002a44:	75850513          	add	a0,a0,1880 # 80006198 <swtch+0x6fc>
    80002a48:	00003097          	auipc	ra,0x3
    80002a4c:	e8e080e7          	jalr	-370(ra) # 800058d6 <printf>
        yield();
    80002a50:	fffff097          	auipc	ra,0xfffff
    80002a54:	5fe080e7          	jalr	1534(ra) # 8000204e <yield>
    for (int i = 0; i < 2; i++) {
    80002a58:	fec42783          	lw	a5,-20(s0)
    80002a5c:	2785                	addw	a5,a5,1
    80002a5e:	fef42623          	sw	a5,-20(s0)
    80002a62:	fec42783          	lw	a5,-20(s0)
    80002a66:	0007871b          	sext.w	a4,a5
    80002a6a:	4785                	li	a5,1
    80002a6c:	fce7d7e3          	bge	a5,a4,80002a3a <simple_task_b+0xe>
    }
    printf("[proc] task B exit\n");
    80002a70:	00003517          	auipc	a0,0x3
    80002a74:	74050513          	add	a0,a0,1856 # 800061b0 <swtch+0x714>
    80002a78:	00003097          	auipc	ra,0x3
    80002a7c:	e5e080e7          	jalr	-418(ra) # 800058d6 <printf>
    exit_process(0);
    80002a80:	4501                	li	a0,0
    80002a82:	fffff097          	auipc	ra,0xfffff
    80002a86:	7ac080e7          	jalr	1964(ra) # 8000222e <exit_process>

0000000080002a8a <cpu_intensive_task>:
}

static void cpu_intensive_task(void) {
    80002a8a:	7179                	add	sp,sp,-48
    80002a8c:	f406                	sd	ra,40(sp)
    80002a8e:	f022                	sd	s0,32(sp)
    80002a90:	1800                	add	s0,sp,48
    uint64 start = timer_ticks();
    80002a92:	00001097          	auipc	ra,0x1
    80002a96:	5ba080e7          	jalr	1466(ra) # 8000404c <timer_ticks>
    80002a9a:	fea43423          	sd	a0,-24(s0)
    for (volatile int i = 0; i < 200000; i++) {
    80002a9e:	fc042e23          	sw	zero,-36(s0)
    80002aa2:	a83d                	j	80002ae0 <cpu_intensive_task+0x56>
        if (i % 50000 == 0) {
    80002aa4:	fdc42783          	lw	a5,-36(s0)
    80002aa8:	2781                	sext.w	a5,a5
    80002aaa:	873e                	mv	a4,a5
    80002aac:	67b1                	lui	a5,0xc
    80002aae:	3507879b          	addw	a5,a5,848 # c350 <_entry-0x7fff3cb0>
    80002ab2:	02f767bb          	remw	a5,a4,a5
    80002ab6:	2781                	sext.w	a5,a5
    80002ab8:	ef89                	bnez	a5,80002ad2 <cpu_intensive_task+0x48>
            printf("[proc] busy iter %d\n", i);
    80002aba:	fdc42783          	lw	a5,-36(s0)
    80002abe:	2781                	sext.w	a5,a5
    80002ac0:	85be                	mv	a1,a5
    80002ac2:	00003517          	auipc	a0,0x3
    80002ac6:	70650513          	add	a0,a0,1798 # 800061c8 <swtch+0x72c>
    80002aca:	00003097          	auipc	ra,0x3
    80002ace:	e0c080e7          	jalr	-500(ra) # 800058d6 <printf>
    for (volatile int i = 0; i < 200000; i++) {
    80002ad2:	fdc42783          	lw	a5,-36(s0)
    80002ad6:	2781                	sext.w	a5,a5
    80002ad8:	2785                	addw	a5,a5,1
    80002ada:	2781                	sext.w	a5,a5
    80002adc:	fcf42e23          	sw	a5,-36(s0)
    80002ae0:	fdc42783          	lw	a5,-36(s0)
    80002ae4:	2781                	sext.w	a5,a5
    80002ae6:	873e                	mv	a4,a5
    80002ae8:	000317b7          	lui	a5,0x31
    80002aec:	d3f78793          	add	a5,a5,-705 # 30d3f <_entry-0x7ffcf2c1>
    80002af0:	fae7dae3          	bge	a5,a4,80002aa4 <cpu_intensive_task+0x1a>
        }
    }
    uint64 end = timer_ticks();
    80002af4:	00001097          	auipc	ra,0x1
    80002af8:	558080e7          	jalr	1368(ra) # 8000404c <timer_ticks>
    80002afc:	fea43023          	sd	a0,-32(s0)
    printf("[proc] busy ran for %lu ticks\n", end - start);
    80002b00:	fe043703          	ld	a4,-32(s0)
    80002b04:	fe843783          	ld	a5,-24(s0)
    80002b08:	40f707b3          	sub	a5,a4,a5
    80002b0c:	85be                	mv	a1,a5
    80002b0e:	00003517          	auipc	a0,0x3
    80002b12:	6d250513          	add	a0,a0,1746 # 800061e0 <swtch+0x744>
    80002b16:	00003097          	auipc	ra,0x3
    80002b1a:	dc0080e7          	jalr	-576(ra) # 800058d6 <printf>
    exit_process(0);
    80002b1e:	4501                	li	a0,0
    80002b20:	fffff097          	auipc	ra,0xfffff
    80002b24:	70e080e7          	jalr	1806(ra) # 8000222e <exit_process>

0000000080002b28 <sleeper_task>:
}

static void sleeper_task(void) {
    80002b28:	1101                	add	sp,sp,-32
    80002b2a:	ec06                	sd	ra,24(sp)
    80002b2c:	e822                	sd	s0,16(sp)
    80002b2e:	1000                	add	s0,sp,32
    printf("[proc] sleeper waiting 3 ticks\n");
    80002b30:	00003517          	auipc	a0,0x3
    80002b34:	6d050513          	add	a0,a0,1744 # 80006200 <swtch+0x764>
    80002b38:	00003097          	auipc	ra,0x3
    80002b3c:	d9e080e7          	jalr	-610(ra) # 800058d6 <printf>
    acquire(&ticks_lock);
    80002b40:	00008517          	auipc	a0,0x8
    80002b44:	45850513          	add	a0,a0,1112 # 8000af98 <ticks_lock>
    80002b48:	fffff097          	auipc	ra,0xfffff
    80002b4c:	cec080e7          	jalr	-788(ra) # 80001834 <acquire>
    uint64 target = ticks + 3;
    80002b50:	00004797          	auipc	a5,0x4
    80002b54:	30878793          	add	a5,a5,776 # 80006e58 <ticks>
    80002b58:	639c                	ld	a5,0(a5)
    80002b5a:	078d                	add	a5,a5,3
    80002b5c:	fef43423          	sd	a5,-24(s0)
    while (ticks < target) {
    80002b60:	a829                	j	80002b7a <sleeper_task+0x52>
        sleep((void*)&ticks, &ticks_lock);
    80002b62:	00008597          	auipc	a1,0x8
    80002b66:	43658593          	add	a1,a1,1078 # 8000af98 <ticks_lock>
    80002b6a:	00004517          	auipc	a0,0x4
    80002b6e:	2ee50513          	add	a0,a0,750 # 80006e58 <ticks>
    80002b72:	fffff097          	auipc	ra,0xfffff
    80002b76:	53e080e7          	jalr	1342(ra) # 800020b0 <sleep>
    while (ticks < target) {
    80002b7a:	00004797          	auipc	a5,0x4
    80002b7e:	2de78793          	add	a5,a5,734 # 80006e58 <ticks>
    80002b82:	639c                	ld	a5,0(a5)
    80002b84:	fe843703          	ld	a4,-24(s0)
    80002b88:	fce7ede3          	bltu	a5,a4,80002b62 <sleeper_task+0x3a>
    }
    release(&ticks_lock);
    80002b8c:	00008517          	auipc	a0,0x8
    80002b90:	40c50513          	add	a0,a0,1036 # 8000af98 <ticks_lock>
    80002b94:	fffff097          	auipc	ra,0xfffff
    80002b98:	cd4080e7          	jalr	-812(ra) # 80001868 <release>
    printf("[proc] sleeper wakeup\n");
    80002b9c:	00003517          	auipc	a0,0x3
    80002ba0:	68450513          	add	a0,a0,1668 # 80006220 <swtch+0x784>
    80002ba4:	00003097          	auipc	ra,0x3
    80002ba8:	d32080e7          	jalr	-718(ra) # 800058d6 <printf>
    exit_process(0);
    80002bac:	4501                	li	a0,0
    80002bae:	fffff097          	auipc	ra,0xfffff
    80002bb2:	680080e7          	jalr	1664(ra) # 8000222e <exit_process>

0000000080002bb6 <syscall_brk_task>:
}

// Simulate the provided initcode.c brk/sbrk sequence via syscall_dispatch.
// We drive sys_sbrk through a synthetic trapframe while running as a kernel task.
static void syscall_brk_task(void) {
    80002bb6:	710d                	add	sp,sp,-352
    80002bb8:	ee86                	sd	ra,344(sp)
    80002bba:	eaa2                	sd	s0,336(sp)
    80002bbc:	1280                	add	s0,sp,352
    struct trapframe tf;
    memset(&tf, 0, sizeof(tf));
    80002bbe:	ea040793          	add	a5,s0,-352
    80002bc2:	12000613          	li	a2,288
    80002bc6:	4581                	li	a1,0
    80002bc8:	853e                	mv	a0,a5
    80002bca:	00002097          	auipc	ra,0x2
    80002bce:	402080e7          	jalr	1026(ra) # 80004fcc <memset>

    printf("[syscall-test] brk/sbrk sequence start\n");
    80002bd2:	00003517          	auipc	a0,0x3
    80002bd6:	66650513          	add	a0,a0,1638 # 80006238 <swtch+0x79c>
    80002bda:	00003097          	auipc	ra,0x3
    80002bde:	cfc080e7          	jalr	-772(ra) # 800058d6 <printf>

    // Step 1: brk(0) equivalent -> use sbrk(0) to read current break.
    tf.a7 = SYS_sbrk;
    80002be2:	47b1                	li	a5,12
    80002be4:	f2f43023          	sd	a5,-224(s0)
    tf.a0 = 0;
    80002be8:	ee043423          	sd	zero,-280(s0)
    syscall_dispatch(&tf);
    80002bec:	ea040793          	add	a5,s0,-352
    80002bf0:	853e                	mv	a0,a5
    80002bf2:	00000097          	auipc	ra,0x0
    80002bf6:	5f2080e7          	jalr	1522(ra) # 800031e4 <syscall_dispatch>
    uint64 heap_top = tf.a0;
    80002bfa:	ee843783          	ld	a5,-280(s0)
    80002bfe:	fef43023          	sd	a5,-32(s0)
    printf("[syscall-test] brk(0) -> 0x%lx\n", heap_top);
    80002c02:	fe043583          	ld	a1,-32(s0)
    80002c06:	00003517          	auipc	a0,0x3
    80002c0a:	65a50513          	add	a0,a0,1626 # 80006260 <swtch+0x7c4>
    80002c0e:	00003097          	auipc	ra,0x3
    80002c12:	cc8080e7          	jalr	-824(ra) # 800058d6 <printf>

    // Step 2: brk(heap_top + 10 pages) => sbrk(+10 pages)
    int inc_up = 4096 * 10;
    80002c16:	67a9                	lui	a5,0xa
    80002c18:	fcf42e23          	sw	a5,-36(s0)
    tf.a0 = inc_up;
    80002c1c:	fdc42783          	lw	a5,-36(s0)
    80002c20:	eef43423          	sd	a5,-280(s0)
    tf.sepc = 0; // reset for readability
    80002c24:	f8043c23          	sd	zero,-104(s0)
    syscall_dispatch(&tf);
    80002c28:	ea040793          	add	a5,s0,-352
    80002c2c:	853e                	mv	a0,a5
    80002c2e:	00000097          	auipc	ra,0x0
    80002c32:	5b6080e7          	jalr	1462(ra) # 800031e4 <syscall_dispatch>
    uint64 new_top = tf.a0 + inc_up; // sbrk returns old break
    80002c36:	ee843703          	ld	a4,-280(s0)
    80002c3a:	fdc42783          	lw	a5,-36(s0)
    80002c3e:	97ba                	add	a5,a5,a4
    80002c40:	fcf43823          	sd	a5,-48(s0)
    printf("[syscall-test] brk(+10 pages) old=0x%lx new=0x%lx\n", tf.a0, new_top);
    80002c44:	ee843783          	ld	a5,-280(s0)
    80002c48:	fd043603          	ld	a2,-48(s0)
    80002c4c:	85be                	mv	a1,a5
    80002c4e:	00003517          	auipc	a0,0x3
    80002c52:	63250513          	add	a0,a0,1586 # 80006280 <swtch+0x7e4>
    80002c56:	00003097          	auipc	ra,0x3
    80002c5a:	c80080e7          	jalr	-896(ra) # 800058d6 <printf>

    // Step 3: brk(new_top - 5 pages) => sbrk(-5 pages)
    int inc_down = -4096 * 5;
    80002c5e:	77ed                	lui	a5,0xffffb
    80002c60:	fcf42623          	sw	a5,-52(s0)
    tf.a0 = inc_down;
    80002c64:	fcc42783          	lw	a5,-52(s0)
    80002c68:	eef43423          	sd	a5,-280(s0)
    tf.sepc = 0;
    80002c6c:	f8043c23          	sd	zero,-104(s0)
    syscall_dispatch(&tf);
    80002c70:	ea040793          	add	a5,s0,-352
    80002c74:	853e                	mv	a0,a5
    80002c76:	00000097          	auipc	ra,0x0
    80002c7a:	56e080e7          	jalr	1390(ra) # 800031e4 <syscall_dispatch>
    uint64 final_top = new_top + inc_down;
    80002c7e:	fcc42783          	lw	a5,-52(s0)
    80002c82:	fd043703          	ld	a4,-48(s0)
    80002c86:	97ba                	add	a5,a5,a4
    80002c88:	fcf43023          	sd	a5,-64(s0)
    printf("[syscall-test] brk(-5 pages) old=0x%lx new=0x%lx\n", tf.a0, final_top);
    80002c8c:	ee843783          	ld	a5,-280(s0)
    80002c90:	fc043603          	ld	a2,-64(s0)
    80002c94:	85be                	mv	a1,a5
    80002c96:	00003517          	auipc	a0,0x3
    80002c9a:	62250513          	add	a0,a0,1570 # 800062b8 <swtch+0x81c>
    80002c9e:	00003097          	auipc	ra,0x3
    80002ca2:	c38080e7          	jalr	-968(ra) # 800058d6 <printf>

    // Keep the task alive briefly to mirror the infinite loop in initcode.
    for (int i = 0; i < 3; i++) {
    80002ca6:	fe042623          	sw	zero,-20(s0)
    80002caa:	a811                	j	80002cbe <syscall_brk_task+0x108>
        yield();
    80002cac:	fffff097          	auipc	ra,0xfffff
    80002cb0:	3a2080e7          	jalr	930(ra) # 8000204e <yield>
    for (int i = 0; i < 3; i++) {
    80002cb4:	fec42783          	lw	a5,-20(s0)
    80002cb8:	2785                	addw	a5,a5,1 # ffffffffffffb001 <_stack_top+0xffffffff7ffec001>
    80002cba:	fef42623          	sw	a5,-20(s0)
    80002cbe:	fec42783          	lw	a5,-20(s0)
    80002cc2:	0007871b          	sext.w	a4,a5
    80002cc6:	4789                	li	a5,2
    80002cc8:	fee7d2e3          	bge	a5,a4,80002cac <syscall_brk_task+0xf6>
    }
    printf("[syscall-test] brk/sbrk sequence done\n");
    80002ccc:	00003517          	auipc	a0,0x3
    80002cd0:	62450513          	add	a0,a0,1572 # 800062f0 <swtch+0x854>
    80002cd4:	00003097          	auipc	ra,0x3
    80002cd8:	c02080e7          	jalr	-1022(ra) # 800058d6 <printf>
    exit_process(0);
    80002cdc:	4501                	li	a0,0
    80002cde:	fffff097          	auipc	ra,0xfffff
    80002ce2:	550080e7          	jalr	1360(ra) # 8000222e <exit_process>

0000000080002ce6 <test_process_subsystem>:
}

void test_process_subsystem(void) {
    80002ce6:	7179                	add	sp,sp,-48
    80002ce8:	f406                	sd	ra,40(sp)
    80002cea:	f022                	sd	s0,32(sp)
    80002cec:	1800                	add	s0,sp,48
    printf("[test] process subsystem start\n");
    80002cee:	00003517          	auipc	a0,0x3
    80002cf2:	62a50513          	add	a0,a0,1578 # 80006318 <swtch+0x87c>
    80002cf6:	00003097          	auipc	ra,0x3
    80002cfa:	be0080e7          	jalr	-1056(ra) # 800058d6 <printf>
    proc_init();
    80002cfe:	fffff097          	auipc	ra,0xfffff
    80002d02:	d64080e7          	jalr	-668(ra) # 80001a62 <proc_init>

    int pid_brk = create_process(syscall_brk_task, "brkTest");
    80002d06:	00003597          	auipc	a1,0x3
    80002d0a:	63258593          	add	a1,a1,1586 # 80006338 <swtch+0x89c>
    80002d0e:	00000517          	auipc	a0,0x0
    80002d12:	ea850513          	add	a0,a0,-344 # 80002bb6 <syscall_brk_task>
    80002d16:	fffff097          	auipc	ra,0xfffff
    80002d1a:	12e080e7          	jalr	302(ra) # 80001e44 <create_process>
    80002d1e:	87aa                	mv	a5,a0
    80002d20:	fef42623          	sw	a5,-20(s0)
    int pid1 = create_process(simple_task_a, "taskA");
    80002d24:	00003597          	auipc	a1,0x3
    80002d28:	61c58593          	add	a1,a1,1564 # 80006340 <swtch+0x8a4>
    80002d2c:	00000517          	auipc	a0,0x0
    80002d30:	ca250513          	add	a0,a0,-862 # 800029ce <simple_task_a>
    80002d34:	fffff097          	auipc	ra,0xfffff
    80002d38:	110080e7          	jalr	272(ra) # 80001e44 <create_process>
    80002d3c:	87aa                	mv	a5,a0
    80002d3e:	fef42423          	sw	a5,-24(s0)
    int pid2 = create_process(simple_task_b, "taskB");
    80002d42:	00003597          	auipc	a1,0x3
    80002d46:	60658593          	add	a1,a1,1542 # 80006348 <swtch+0x8ac>
    80002d4a:	00000517          	auipc	a0,0x0
    80002d4e:	ce250513          	add	a0,a0,-798 # 80002a2c <simple_task_b>
    80002d52:	fffff097          	auipc	ra,0xfffff
    80002d56:	0f2080e7          	jalr	242(ra) # 80001e44 <create_process>
    80002d5a:	87aa                	mv	a5,a0
    80002d5c:	fef42223          	sw	a5,-28(s0)
    int pid_busy = create_process(cpu_intensive_task, "busy");
    80002d60:	00003597          	auipc	a1,0x3
    80002d64:	5f058593          	add	a1,a1,1520 # 80006350 <swtch+0x8b4>
    80002d68:	00000517          	auipc	a0,0x0
    80002d6c:	d2250513          	add	a0,a0,-734 # 80002a8a <cpu_intensive_task>
    80002d70:	fffff097          	auipc	ra,0xfffff
    80002d74:	0d4080e7          	jalr	212(ra) # 80001e44 <create_process>
    80002d78:	87aa                	mv	a5,a0
    80002d7a:	fef42023          	sw	a5,-32(s0)
    int pid_sleep = create_process(sleeper_task, "sleepy");
    80002d7e:	00003597          	auipc	a1,0x3
    80002d82:	5da58593          	add	a1,a1,1498 # 80006358 <swtch+0x8bc>
    80002d86:	00000517          	auipc	a0,0x0
    80002d8a:	da250513          	add	a0,a0,-606 # 80002b28 <sleeper_task>
    80002d8e:	fffff097          	auipc	ra,0xfffff
    80002d92:	0b6080e7          	jalr	182(ra) # 80001e44 <create_process>
    80002d96:	87aa                	mv	a5,a0
    80002d98:	fcf42e23          	sw	a5,-36(s0)
    if (pid_brk < 0 || pid1 < 0 || pid2 < 0 || pid_busy < 0 || pid_sleep < 0) {
    80002d9c:	fec42783          	lw	a5,-20(s0)
    80002da0:	2781                	sext.w	a5,a5
    80002da2:	0207c663          	bltz	a5,80002dce <test_process_subsystem+0xe8>
    80002da6:	fe842783          	lw	a5,-24(s0)
    80002daa:	2781                	sext.w	a5,a5
    80002dac:	0207c163          	bltz	a5,80002dce <test_process_subsystem+0xe8>
    80002db0:	fe442783          	lw	a5,-28(s0)
    80002db4:	2781                	sext.w	a5,a5
    80002db6:	0007cc63          	bltz	a5,80002dce <test_process_subsystem+0xe8>
    80002dba:	fe042783          	lw	a5,-32(s0)
    80002dbe:	2781                	sext.w	a5,a5
    80002dc0:	0007c763          	bltz	a5,80002dce <test_process_subsystem+0xe8>
    80002dc4:	fdc42783          	lw	a5,-36(s0)
    80002dc8:	2781                	sext.w	a5,a5
    80002dca:	0007da63          	bgez	a5,80002dde <test_process_subsystem+0xf8>
        panic("[proc] create_process failed");
    80002dce:	00003517          	auipc	a0,0x3
    80002dd2:	59250513          	add	a0,a0,1426 # 80006360 <swtch+0x8c4>
    80002dd6:	00003097          	auipc	ra,0x3
    80002dda:	b98080e7          	jalr	-1128(ra) # 8000596e <panic>
    }
    set_proc_priority(pid_busy, 3);   // mimic a higher-priority, latency-sensitive task
    80002dde:	fe042783          	lw	a5,-32(s0)
    80002de2:	458d                	li	a1,3
    80002de4:	853e                	mv	a0,a5
    80002de6:	00000097          	auipc	ra,0x0
    80002dea:	9a6080e7          	jalr	-1626(ra) # 8000278c <set_proc_priority>
    set_proc_priority(pid_sleep, 12); // keep sleeper low priority to show aging/wakeup
    80002dee:	fdc42783          	lw	a5,-36(s0)
    80002df2:	45b1                	li	a1,12
    80002df4:	853e                	mv	a0,a5
    80002df6:	00000097          	auipc	ra,0x0
    80002dfa:	996080e7          	jalr	-1642(ra) # 8000278c <set_proc_priority>

    printf("[test] created pids: %d, %d, %d, %d, %d (enter scheduler)\n",
    80002dfe:	fdc42783          	lw	a5,-36(s0)
    80002e02:	fe042703          	lw	a4,-32(s0)
    80002e06:	fe442683          	lw	a3,-28(s0)
    80002e0a:	fe842603          	lw	a2,-24(s0)
    80002e0e:	fec42583          	lw	a1,-20(s0)
    80002e12:	00003517          	auipc	a0,0x3
    80002e16:	56e50513          	add	a0,a0,1390 # 80006380 <swtch+0x8e4>
    80002e1a:	00003097          	auipc	ra,0x3
    80002e1e:	abc080e7          	jalr	-1348(ra) # 800058d6 <printf>
           pid_brk, pid1, pid2, pid_busy, pid_sleep);
    scheduler(); // never returns
    80002e22:	00000097          	auipc	ra,0x0
    80002e26:	83a080e7          	jalr	-1990(ra) # 8000265c <scheduler>

0000000080002e2a <active_trapframe>:
    [SYS_mkdir]  = {sys_unimpl, "mkdir", 1},
    [SYS_close]  = {sys_close, "close", 1},
    [SYS_yield]  = {sys_yield, "yield", 0},
};

static struct trapframe* active_trapframe(void) {
    80002e2a:	1101                	add	sp,sp,-32
    80002e2c:	ec06                	sd	ra,24(sp)
    80002e2e:	e822                	sd	s0,16(sp)
    80002e30:	1000                	add	s0,sp,32
    if (current_tf) {
    80002e32:	00008797          	auipc	a5,0x8
    80002e36:	15e78793          	add	a5,a5,350 # 8000af90 <current_tf>
    80002e3a:	639c                	ld	a5,0(a5)
    80002e3c:	c799                	beqz	a5,80002e4a <active_trapframe+0x20>
        return current_tf;
    80002e3e:	00008797          	auipc	a5,0x8
    80002e42:	15278793          	add	a5,a5,338 # 8000af90 <current_tf>
    80002e46:	639c                	ld	a5,0(a5)
    80002e48:	a839                	j	80002e66 <active_trapframe+0x3c>
    }
    struct proc* p = myproc();
    80002e4a:	fffff097          	auipc	ra,0xfffff
    80002e4e:	160080e7          	jalr	352(ra) # 80001faa <myproc>
    80002e52:	fea43423          	sd	a0,-24(s0)
    if (p) {
    80002e56:	fe843783          	ld	a5,-24(s0)
    80002e5a:	c789                	beqz	a5,80002e64 <active_trapframe+0x3a>
        return p->trapframe;
    80002e5c:	fe843783          	ld	a5,-24(s0)
    80002e60:	7f9c                	ld	a5,56(a5)
    80002e62:	a011                	j	80002e66 <active_trapframe+0x3c>
    }
    return NULL;
    80002e64:	4781                	li	a5,0
}
    80002e66:	853e                	mv	a0,a5
    80002e68:	60e2                	ld	ra,24(sp)
    80002e6a:	6442                	ld	s0,16(sp)
    80002e6c:	6105                	add	sp,sp,32
    80002e6e:	8082                	ret

0000000080002e70 <active_pagetable>:

static pagetable_t active_pagetable(void) {
    80002e70:	1101                	add	sp,sp,-32
    80002e72:	ec06                	sd	ra,24(sp)
    80002e74:	e822                	sd	s0,16(sp)
    80002e76:	1000                	add	s0,sp,32
    struct proc* p = myproc();
    80002e78:	fffff097          	auipc	ra,0xfffff
    80002e7c:	132080e7          	jalr	306(ra) # 80001faa <myproc>
    80002e80:	fea43423          	sd	a0,-24(s0)
    return p ? p->pagetable : NULL;
    80002e84:	fe843783          	ld	a5,-24(s0)
    80002e88:	c789                	beqz	a5,80002e92 <active_pagetable+0x22>
    80002e8a:	fe843783          	ld	a5,-24(s0)
    80002e8e:	7b9c                	ld	a5,48(a5)
    80002e90:	a011                	j	80002e94 <active_pagetable+0x24>
    80002e92:	4781                	li	a5,0
}
    80002e94:	853e                	mv	a0,a5
    80002e96:	60e2                	ld	ra,24(sp)
    80002e98:	6442                	ld	s0,16(sp)
    80002e9a:	6105                	add	sp,sp,32
    80002e9c:	8082                	ret

0000000080002e9e <arg_raw>:

static uint64 arg_raw(int n) {
    80002e9e:	7179                	add	sp,sp,-48
    80002ea0:	f406                	sd	ra,40(sp)
    80002ea2:	f022                	sd	s0,32(sp)
    80002ea4:	1800                	add	s0,sp,48
    80002ea6:	87aa                	mv	a5,a0
    80002ea8:	fcf42e23          	sw	a5,-36(s0)
    if (n < 0 || n > 5) return (uint64)-1;
    80002eac:	fdc42783          	lw	a5,-36(s0)
    80002eb0:	2781                	sext.w	a5,a5
    80002eb2:	0007c963          	bltz	a5,80002ec4 <arg_raw+0x26>
    80002eb6:	fdc42783          	lw	a5,-36(s0)
    80002eba:	0007871b          	sext.w	a4,a5
    80002ebe:	4795                	li	a5,5
    80002ec0:	00e7d463          	bge	a5,a4,80002ec8 <arg_raw+0x2a>
    80002ec4:	57fd                	li	a5,-1
    80002ec6:	a8b5                	j	80002f42 <arg_raw+0xa4>
    struct trapframe* tf = active_trapframe();
    80002ec8:	00000097          	auipc	ra,0x0
    80002ecc:	f62080e7          	jalr	-158(ra) # 80002e2a <active_trapframe>
    80002ed0:	fea43423          	sd	a0,-24(s0)
    if (!tf) {
    80002ed4:	fe843783          	ld	a5,-24(s0)
    80002ed8:	e399                	bnez	a5,80002ede <arg_raw+0x40>
        return (uint64)-1;
    80002eda:	57fd                	li	a5,-1
    80002edc:	a09d                	j	80002f42 <arg_raw+0xa4>
    }
    switch (n) {
    80002ede:	fdc42783          	lw	a5,-36(s0)
    80002ee2:	0007871b          	sext.w	a4,a5
    80002ee6:	4795                	li	a5,5
    80002ee8:	04e7ec63          	bltu	a5,a4,80002f40 <arg_raw+0xa2>
    80002eec:	fdc46783          	lwu	a5,-36(s0)
    80002ef0:	00279713          	sll	a4,a5,0x2
    80002ef4:	00003797          	auipc	a5,0x3
    80002ef8:	7ac78793          	add	a5,a5,1964 # 800066a0 <syscall_table+0x228>
    80002efc:	97ba                	add	a5,a5,a4
    80002efe:	439c                	lw	a5,0(a5)
    80002f00:	0007871b          	sext.w	a4,a5
    80002f04:	00003797          	auipc	a5,0x3
    80002f08:	79c78793          	add	a5,a5,1948 # 800066a0 <syscall_table+0x228>
    80002f0c:	97ba                	add	a5,a5,a4
    80002f0e:	8782                	jr	a5
        case 0: return tf->a0;
    80002f10:	fe843783          	ld	a5,-24(s0)
    80002f14:	67bc                	ld	a5,72(a5)
    80002f16:	a035                	j	80002f42 <arg_raw+0xa4>
        case 1: return tf->a1;
    80002f18:	fe843783          	ld	a5,-24(s0)
    80002f1c:	6bbc                	ld	a5,80(a5)
    80002f1e:	a015                	j	80002f42 <arg_raw+0xa4>
        case 2: return tf->a2;
    80002f20:	fe843783          	ld	a5,-24(s0)
    80002f24:	6fbc                	ld	a5,88(a5)
    80002f26:	a831                	j	80002f42 <arg_raw+0xa4>
        case 3: return tf->a3;
    80002f28:	fe843783          	ld	a5,-24(s0)
    80002f2c:	73bc                	ld	a5,96(a5)
    80002f2e:	a811                	j	80002f42 <arg_raw+0xa4>
        case 4: return tf->a4;
    80002f30:	fe843783          	ld	a5,-24(s0)
    80002f34:	77bc                	ld	a5,104(a5)
    80002f36:	a031                	j	80002f42 <arg_raw+0xa4>
        case 5: return tf->a5;
    80002f38:	fe843783          	ld	a5,-24(s0)
    80002f3c:	7bbc                	ld	a5,112(a5)
    80002f3e:	a011                	j	80002f42 <arg_raw+0xa4>
        default:
            return (uint64)-1;
    80002f40:	57fd                	li	a5,-1
    }
}
    80002f42:	853e                	mv	a0,a5
    80002f44:	70a2                	ld	ra,40(sp)
    80002f46:	7402                	ld	s0,32(sp)
    80002f48:	6145                	add	sp,sp,48
    80002f4a:	8082                	ret

0000000080002f4c <get_syscall_arg>:

int get_syscall_arg(int n, uint64* ip) {
    80002f4c:	7179                	add	sp,sp,-48
    80002f4e:	f406                	sd	ra,40(sp)
    80002f50:	f022                	sd	s0,32(sp)
    80002f52:	1800                	add	s0,sp,48
    80002f54:	87aa                	mv	a5,a0
    80002f56:	fcb43823          	sd	a1,-48(s0)
    80002f5a:	fcf42e23          	sw	a5,-36(s0)
    if (!ip) return -1;
    80002f5e:	fd043783          	ld	a5,-48(s0)
    80002f62:	e399                	bnez	a5,80002f68 <get_syscall_arg+0x1c>
    80002f64:	57fd                	li	a5,-1
    80002f66:	a82d                	j	80002fa0 <get_syscall_arg+0x54>
    uint64 val = arg_raw(n);
    80002f68:	fdc42783          	lw	a5,-36(s0)
    80002f6c:	853e                	mv	a0,a5
    80002f6e:	00000097          	auipc	ra,0x0
    80002f72:	f30080e7          	jalr	-208(ra) # 80002e9e <arg_raw>
    80002f76:	fea43423          	sd	a0,-24(s0)
    if (val == (uint64)-1 && !active_trapframe()) return -1;
    80002f7a:	fe843703          	ld	a4,-24(s0)
    80002f7e:	57fd                	li	a5,-1
    80002f80:	00f71a63          	bne	a4,a5,80002f94 <get_syscall_arg+0x48>
    80002f84:	00000097          	auipc	ra,0x0
    80002f88:	ea6080e7          	jalr	-346(ra) # 80002e2a <active_trapframe>
    80002f8c:	87aa                	mv	a5,a0
    80002f8e:	e399                	bnez	a5,80002f94 <get_syscall_arg+0x48>
    80002f90:	57fd                	li	a5,-1
    80002f92:	a039                	j	80002fa0 <get_syscall_arg+0x54>
    *ip = val;
    80002f94:	fd043783          	ld	a5,-48(s0)
    80002f98:	fe843703          	ld	a4,-24(s0)
    80002f9c:	e398                	sd	a4,0(a5)
    return 0;
    80002f9e:	4781                	li	a5,0
}
    80002fa0:	853e                	mv	a0,a5
    80002fa2:	70a2                	ld	ra,40(sp)
    80002fa4:	7402                	ld	s0,32(sp)
    80002fa6:	6145                	add	sp,sp,48
    80002fa8:	8082                	ret

0000000080002faa <argint>:

int argint(int n, int* ip) {
    80002faa:	7179                	add	sp,sp,-48
    80002fac:	f406                	sd	ra,40(sp)
    80002fae:	f022                	sd	s0,32(sp)
    80002fb0:	1800                	add	s0,sp,48
    80002fb2:	87aa                	mv	a5,a0
    80002fb4:	fcb43823          	sd	a1,-48(s0)
    80002fb8:	fcf42e23          	sw	a5,-36(s0)
    if (!ip) return -1;
    80002fbc:	fd043783          	ld	a5,-48(s0)
    80002fc0:	e399                	bnez	a5,80002fc6 <argint+0x1c>
    80002fc2:	57fd                	li	a5,-1
    80002fc4:	a815                	j	80002ff8 <argint+0x4e>
    uint64 val = 0;
    80002fc6:	fe043423          	sd	zero,-24(s0)
    if (get_syscall_arg(n, &val) < 0) return -1;
    80002fca:	fe840713          	add	a4,s0,-24
    80002fce:	fdc42783          	lw	a5,-36(s0)
    80002fd2:	85ba                	mv	a1,a4
    80002fd4:	853e                	mv	a0,a5
    80002fd6:	00000097          	auipc	ra,0x0
    80002fda:	f76080e7          	jalr	-138(ra) # 80002f4c <get_syscall_arg>
    80002fde:	87aa                	mv	a5,a0
    80002fe0:	0007d463          	bgez	a5,80002fe8 <argint+0x3e>
    80002fe4:	57fd                	li	a5,-1
    80002fe6:	a809                	j	80002ff8 <argint+0x4e>
    *ip = (int)val;
    80002fe8:	fe843783          	ld	a5,-24(s0)
    80002fec:	0007871b          	sext.w	a4,a5
    80002ff0:	fd043783          	ld	a5,-48(s0)
    80002ff4:	c398                	sw	a4,0(a5)
    return 0;
    80002ff6:	4781                	li	a5,0
}
    80002ff8:	853e                	mv	a0,a5
    80002ffa:	70a2                	ld	ra,40(sp)
    80002ffc:	7402                	ld	s0,32(sp)
    80002ffe:	6145                	add	sp,sp,48
    80003000:	8082                	ret

0000000080003002 <argaddr>:

int argaddr(int n, uint64* ip) {
    80003002:	1101                	add	sp,sp,-32
    80003004:	ec06                	sd	ra,24(sp)
    80003006:	e822                	sd	s0,16(sp)
    80003008:	1000                	add	s0,sp,32
    8000300a:	87aa                	mv	a5,a0
    8000300c:	feb43023          	sd	a1,-32(s0)
    80003010:	fef42623          	sw	a5,-20(s0)
    if (!ip) return -1;
    80003014:	fe043783          	ld	a5,-32(s0)
    80003018:	e399                	bnez	a5,8000301e <argaddr+0x1c>
    8000301a:	57fd                	li	a5,-1
    8000301c:	a819                	j	80003032 <argaddr+0x30>
    return get_syscall_arg(n, ip);
    8000301e:	fec42783          	lw	a5,-20(s0)
    80003022:	fe043583          	ld	a1,-32(s0)
    80003026:	853e                	mv	a0,a5
    80003028:	00000097          	auipc	ra,0x0
    8000302c:	f24080e7          	jalr	-220(ra) # 80002f4c <get_syscall_arg>
    80003030:	87aa                	mv	a5,a0
}
    80003032:	853e                	mv	a0,a5
    80003034:	60e2                	ld	ra,24(sp)
    80003036:	6442                	ld	s0,16(sp)
    80003038:	6105                	add	sp,sp,32
    8000303a:	8082                	ret

000000008000303c <argstr>:

int argstr(int n, char* buf, int max) {
    8000303c:	7179                	add	sp,sp,-48
    8000303e:	f406                	sd	ra,40(sp)
    80003040:	f022                	sd	s0,32(sp)
    80003042:	1800                	add	s0,sp,48
    80003044:	87aa                	mv	a5,a0
    80003046:	fcb43823          	sd	a1,-48(s0)
    8000304a:	8732                	mv	a4,a2
    8000304c:	fcf42e23          	sw	a5,-36(s0)
    80003050:	87ba                	mv	a5,a4
    80003052:	fcf42c23          	sw	a5,-40(s0)
    if (!buf || max <= 0) return -1;
    80003056:	fd043783          	ld	a5,-48(s0)
    8000305a:	c791                	beqz	a5,80003066 <argstr+0x2a>
    8000305c:	fd842783          	lw	a5,-40(s0)
    80003060:	2781                	sext.w	a5,a5
    80003062:	00f04463          	bgtz	a5,8000306a <argstr+0x2e>
    80003066:	57fd                	li	a5,-1
    80003068:	a83d                	j	800030a6 <argstr+0x6a>
    uint64 addr = 0;
    8000306a:	fe043423          	sd	zero,-24(s0)
    if (argaddr(n, &addr) < 0) return -1;
    8000306e:	fe840713          	add	a4,s0,-24
    80003072:	fdc42783          	lw	a5,-36(s0)
    80003076:	85ba                	mv	a1,a4
    80003078:	853e                	mv	a0,a5
    8000307a:	00000097          	auipc	ra,0x0
    8000307e:	f88080e7          	jalr	-120(ra) # 80003002 <argaddr>
    80003082:	87aa                	mv	a5,a0
    80003084:	0007d463          	bgez	a5,8000308c <argstr+0x50>
    80003088:	57fd                	li	a5,-1
    8000308a:	a831                	j	800030a6 <argstr+0x6a>
    return get_user_string(addr, buf, max);
    8000308c:	fe843783          	ld	a5,-24(s0)
    80003090:	fd842703          	lw	a4,-40(s0)
    80003094:	863a                	mv	a2,a4
    80003096:	fd043583          	ld	a1,-48(s0)
    8000309a:	853e                	mv	a0,a5
    8000309c:	00000097          	auipc	ra,0x0
    800030a0:	058080e7          	jalr	88(ra) # 800030f4 <get_user_string>
    800030a4:	87aa                	mv	a5,a0
}
    800030a6:	853e                	mv	a0,a5
    800030a8:	70a2                	ld	ra,40(sp)
    800030aa:	7402                	ld	s0,32(sp)
    800030ac:	6145                	add	sp,sp,48
    800030ae:	8082                	ret

00000000800030b0 <check_user_ptr>:

int check_user_ptr(uint64 uaddr, uint64 size) {
    800030b0:	7179                	add	sp,sp,-48
    800030b2:	f406                	sd	ra,40(sp)
    800030b4:	f022                	sd	s0,32(sp)
    800030b6:	1800                	add	s0,sp,48
    800030b8:	fca43c23          	sd	a0,-40(s0)
    800030bc:	fcb43823          	sd	a1,-48(s0)
    pagetable_t pt = active_pagetable();
    800030c0:	00000097          	auipc	ra,0x0
    800030c4:	db0080e7          	jalr	-592(ra) # 80002e70 <active_pagetable>
    800030c8:	fea43423          	sd	a0,-24(s0)
    return user_access_ok(pt, uaddr, size) ? 0 : -1;
    800030cc:	fd043603          	ld	a2,-48(s0)
    800030d0:	fd843583          	ld	a1,-40(s0)
    800030d4:	fe843503          	ld	a0,-24(s0)
    800030d8:	00001097          	auipc	ra,0x1
    800030dc:	988080e7          	jalr	-1656(ra) # 80003a60 <user_access_ok>
    800030e0:	87aa                	mv	a5,a0
    800030e2:	c399                	beqz	a5,800030e8 <check_user_ptr+0x38>
    800030e4:	4781                	li	a5,0
    800030e6:	a011                	j	800030ea <check_user_ptr+0x3a>
    800030e8:	57fd                	li	a5,-1
}
    800030ea:	853e                	mv	a0,a5
    800030ec:	70a2                	ld	ra,40(sp)
    800030ee:	7402                	ld	s0,32(sp)
